MPASM 5.71  /HOME/JACQUES/GITHUB/PS2_RS232/P   4-10-2017  20:20:39         PAGE  1


LOC  OBJECT CODE     LINE SOURCE TEXT
  VALUE

                      00001 ;NOM: ps2_rs232
                      00002 ;DESCRIPTION: adapteur de clavier PS/2 vers RS232 TTL. 
                      00003 ;   le MCU PIC12F1572 lit les codes du clavier et les convertis en codes ASCII
                      00004 ;   pour les retransmettre via le EUSART. 
                      00005 ;CRÉATION:  2016-12-22
                      00006 ;AUTEUR: Jacques Deschênes, Copyright 2016
                      00007 ;REF:
                      00008 ;   http://www.computer-engineering.org/ps2protocol/  
                      00009 ;   http://www.computer-engineering.org/ps2keyboard/scancodes2.html    
                      00010 ;;;;;;;;;;;;;;;;;;;;;;;;;;;;;;;;;;;;;;;;;;;;;;;;;;;;;;;;;;;;;;;;;;;;;;;;;;;;;;;;    
                      00011 ;This file is part of ps2_rs232.
                      00012 ;
                      00013 ;    ps2_rs232 is free software: you can redistribute it and/or modify
                      00014 ;    it under the terms of the GNU General Public License as published by
                      00015 ;    the Free Software Foundation, either version 3 of the License, or
                      00016 ;    (at your option) any later version.
                      00017 ;
                      00018 ;    ps2_rs232 is distributed in the hope that it will be useful,
                      00019 ;    but WITHOUT ANY WARRANTY; without even the implied warranty of
                      00020 ;    MERCHANTABILITY or FITNESS FOR A PARTICULAR PURPOSE.  See the
                      00021 ;    GNU General Public License for more details.
                      00022 ;
                      00023 ;    You should have received a copy of the GNU General Public License
                      00024 ;    along with ps2_rs232.  If not, see <https://www.gnu.org/licenses/>.
                      00025 ;;;;;;;;;;;;;;;;;;;;;;;;;;;;;;;;;;;;;;;;;;;;;;;;;;;;;;;;;;;;;;;;;;;;;;;;;;;;;;;;
                      00026     
                      00027 ;#define DEBUG    
                      00028     
                      00029     include p12f1572.inc
                      00001         LIST
                      00002 
                      00003 ;==========================================================================
                      00004 ; Build date : Nov 17 2016
                      00005 ;  MPASM PIC12F1572 processor include
                      00006 ; 
                      00007 ;  (c) Copyright 1999-2016 Microchip Technology, All rights reserved
                      00008 ;==========================================================================
                      00009 
                      01601         LIST
                      00030     include ascii.inc
                      00001 ;;;;;;;;;;;;;;;;;;;;;;;;;;;;;;;;;;;;;;;;;;;;;;;;;;;;;;;;;;;;;;;;;;;;;;;;;;;;;;;;
                      00002 ;NOM: ps2_rs232
                      00003 ;DESCRIPTION: adapteur de clavier PS/2 vers RS232 TTL. 
                      00004 ;   le MCU PIC12F1572 lit les codes du clavier et les convertis en codes ASCII
                      00005 ;   pour les retransmettre via le EUSART. 
                      00006 ;CRÉATION:  2016-12-22
                      00007 ;AUTEUR: Jacques Deschênes, Copyright 2016
                      00008 ;This file is part of ps2_rs232.
                      00009 ; REF:  http://www.asciitable.com/    
                      00010 ;;;;;;;;;;;;;;;;;;;;;;;;;;;;;;;;;;;;;;;;;;;;;;;;;;;;;;;;;;;;;;;;;;;;;;;;;;;;;;;;
                      00011 ;
                      00012 ;This file is part of ps2_rs232.
                      00013 ;
MPASM 5.71  /HOME/JACQUES/GITHUB/PS2_RS232/P   4-10-2017  20:20:39         PAGE  2


LOC  OBJECT CODE     LINE SOURCE TEXT
  VALUE

                      00014 ;    ps2_rs232 is free software: you can redistribute it and/or modify
                      00015 ;    it under the terms of the GNU General Public License as published by
                      00016 ;    the Free Software Foundation, either version 3 of the License, or
                      00017 ;    (at your option) any later version.
                      00018 ;
                      00019 ;    ps2_rs232 is distributed in the hope that it will be useful,
                      00020 ;    but WITHOUT ANY WARRANTY; without even the implied warranty of
                      00021 ;    MERCHANTABILITY or FITNESS FOR A PARTICULAR PURPOSE.  See the
                      00022 ;    GNU General Public License for more details.
                      00023 ;
                      00024 ;    You should have received a copy of the GNU General Public License
                      00025 ;    along with ps2_rs232.  If not, see <https://www.gnu.org/licenses/>.
                      00026 ;;;;;;;;;;;;;;;;;;;;;;;;;;;;;;;;;;;;;;;;;;;;;;;;;;;;;;;;;;;;;;;;;;;;;;;;;;;;;;;;
                      00027 
                      00028 ;liste de code ASCII avec nom symbolique
                      00029 ;REF: www.asciitable.com
                      00030     radix dec
                      00031 ; codes de contrôle    
  00000000            00032 A_NUL   equ     0   ;null
  00000001            00033 A_SOH   equ     1   ;start of heading
  00000002            00034 A_STX   equ     2   ;start of text
  00000003            00035 A_ETX   equ     3   ;end of text
  00000004            00036 A_EOT   equ     4   ;end of transmission
  00000005            00037 A_ENQ   equ     5   ;enquiry
  00000006            00038 A_ACK   equ     6   ;acknowledge
  00000007            00039 A_BEL   equ     7   ;bell
  00000008            00040 A_BKSP  equ     8   ;backspace
  00000009            00041 A_TAB   equ     9   ;horizontal tab
  0000000A            00042 A_LF    equ     10  ;line feed
  0000000B            00043 A_VT    equ     11  ;vertical tab
  0000000C            00044 A_FF    equ     12  ;form feed
  0000000D            00045 A_CR    equ     13  ;carriage return
  0000000E            00046 A_SO    equ     14  ;shift out
  0000000F            00047 A_SI    equ     15  ;shift in
  00000010            00048 A_DLE   equ     16  ;data link escape
  00000011            00049 A_DC1   equ     17  ;device control 1
  00000012            00050 A_DC2   equ     18  ;device control 2
  00000013            00051 A_DC3   equ     19  ;device control 3
  00000014            00052 A_DC4   equ     20  ;device control 4
  00000015            00053 A_NAK   equ     21  ;negative ackowledge
  00000016            00054 A_SYN   equ     22  ;synchronous idle
  00000017            00055 A_ETB   equ     23  ;end of trans. block
  00000018            00056 A_CAN   equ     24  ;cancel
  00000019            00057 A_EM    equ     25  ;end of medium
  0000001A            00058 A_SUB   equ     26  ;substitute
  0000001B            00059 A_ESC   equ     27  ;escape
  0000001C            00060 A_FS    equ     28  ;file separator     
  0000001D            00061 A_GS    equ     29  ;group separator
  0000001E            00062 A_RS    equ     30  ;record separator
  0000001F            00063 A_US    equ     31  ;unit separator
                      00064 ;caractères
  00000020            00065 A_SPACE equ     32  ; ' '
  00000021            00066 A_EXCLA equ     33  ; '!'
MPASM 5.71  /HOME/JACQUES/GITHUB/PS2_RS232/P   4-10-2017  20:20:39         PAGE  3


LOC  OBJECT CODE     LINE SOURCE TEXT
  VALUE

  00000022            00067 A_DQUOT equ     34  ; '"'       
  00000023            00068 A_SHARP equ     35  ; '#'
  00000024            00069 A_DOLLR equ     36  ; '$'
  00000025            00070 A_PRCNT equ     37  ; '%'
  00000026            00071 A_AMP   equ     38  ; '&'
  00000027            00072 A_QUOT  equ     39  ; '\''
  00000028            00073 A_LPAR  equ     40  ; '('
  00000029            00074 A_RPAR  equ     41  ; ')'
  0000002A            00075 A_STAR  equ     42  ; '*'
  0000002B            00076 A_PLUS  equ     43  ; '+'
  0000002C            00077 A_COMM  equ     44  ; ','
  0000002D            00078 A_DASH  equ     45  ; '-'
  0000002E            00079 A_DOT   equ     46  ; '.'
  0000002F            00080 A_SLASH equ     47  ; '/'
  00000030            00081 A_0     equ     48  ; '0'
  00000031            00082 A_1     equ     49  ; '1'
  00000032            00083 A_2     equ     50  ; '2'
  00000033            00084 A_3     equ     51  ; '3'       
  00000034            00085 A_4     equ     52  ; '4'
  00000035            00086 A_5     equ     53  ; '5'
  00000036            00087 A_6     equ     54  ; '6'
  00000037            00088 A_7     equ     55  ; '7'
  00000038            00089 A_8     equ     56  ; '8'
  00000039            00090 A_9     equ     57  ; '9'
  0000003A            00091 A_COL   equ     58  ; ':'
  0000003B            00092 A_SCOL  equ     59  ; ';'
  0000003C            00093 A_LT    equ     60  ; '<'
  0000003D            00094 A_EQUAL equ     61  ; '='
  0000003E            00095 A_GT    equ     62  ; '>'
  0000003F            00096 A_QUST  equ     63  ; '?'
  00000040            00097 A_AROB  equ     64  ; '@'
  00000041            00098 A_AU    equ     65  ; 'A'
  00000042            00099 A_BU    equ     66  ; 'B'
  00000043            00100 A_CU    equ     67  ; 'C'
  00000044            00101 A_DU    equ     68  ; 'D'
  00000045            00102 A_EU    equ     69  ; 'E'
  00000046            00103 A_FU    equ     70  ; 'F'
  00000047            00104 A_GU    equ     71  ; 'G'
  00000048            00105 A_HU    equ     72  ; 'H'
  00000049            00106 A_IU    equ     73  ; 'I'
  0000004A            00107 A_JU    equ     74  ; 'J'
  0000004B            00108 A_KU    equ     75  ; 'K'
  0000004C            00109 A_LU    equ     76  ; 'L'
  0000004D            00110 A_MU    equ     77  ; 'M'
  0000004E            00111 A_NU    equ     78  ; 'N'
  0000004F            00112 A_OU    equ     79  ; 'O'
  00000050            00113 A_PU    equ     80  ; 'P'
  00000051            00114 A_QU    equ     81  ; 'Q'
  00000052            00115 A_RU    equ     82  ; 'R'
  00000053            00116 A_SU    equ     83  ; 'S'
  00000054            00117 A_TU    equ     84  ; 'T'
  00000055            00118 A_UU    equ     85  ; 'U'
  00000056            00119 A_VU    equ     86  ; 'V'
MPASM 5.71  /HOME/JACQUES/GITHUB/PS2_RS232/P   4-10-2017  20:20:39         PAGE  4


LOC  OBJECT CODE     LINE SOURCE TEXT
  VALUE

  00000057            00120 A_WU    equ     87  ; 'W'
  00000058            00121 A_XU    equ     88  ; 'X'
  00000059            00122 A_YU    equ     89  ; 'Y'
  0000005A            00123 A_ZU    equ     90  ; 'Z'
  0000005B            00124 A_LBRK  equ     91  ; '['
  0000005C            00125 A_BSLA  equ     92  ; '\\'
  0000005D            00126 A_RBRK  equ     93  ; ']'
  0000005E            00127 A_CIRC  equ     94  ; '^'
  0000005F            00128 A_UNDR  equ     95  ; '_'
  00000060            00129 A_ACUT  equ     96  ; '`'
  00000061            00130 A_AL    equ     97  ; 'a'
  00000062            00131 A_BL    equ     98  ; 'b'
  00000063            00132 A_CL    equ     99  ; 'c'
  00000064            00133 A_DL    equ     100 ; 'd'
  00000065            00134 A_EL    equ     101 ; 'e'
  00000066            00135 A_FL    equ     102 ; 'f'
  00000067            00136 A_GL    equ     103 ; 'g'
  00000068            00137 A_HL    equ     104 ; 'h'
  00000069            00138 A_IL    equ     105 ; 'i'
  0000006A            00139 A_JL    equ     106 ; 'j'
  0000006B            00140 A_KL    equ     107 ; 'k'
  0000006C            00141 A_LL    equ     108 ; 'l'
  0000006D            00142 A_ML    equ     109 ; 'm'
  0000006E            00143 A_NL    equ     110 ; 'n'
  0000006F            00144 A_OL    equ     111 ; 'o'
  00000070            00145 A_PL    equ     112 ; 'p'
  00000071            00146 A_QL    equ     113 ; 'q'
  00000072            00147 A_RL    equ     114 ; 'r'
  00000073            00148 A_SL    equ     115 ; 's'
  00000074            00149 A_TL    equ     116 ; 't'
  00000075            00150 A_UL    equ     117 ; 'u'
  00000076            00151 A_VL    equ     118 ; 'v'
  00000077            00152 A_WL    equ     119 ; 'w'
  00000078            00153 A_XL    equ     120 ; 'x'
  00000079            00154 A_YL    equ     121 ; 'y'
  0000007A            00155 A_ZL    equ     122 ; 'z'
  0000007B            00156 A_LBRC  equ     123 ; '{'
  0000007C            00157 A_PIPE  equ     124 ; '|'
  0000007D            00158 A_RBRC  equ     125 ; '}'
  0000007E            00159 A_TILD  equ     126 ; '~'
  0000007F            00160 A_DEL   equ     127 ; DELETE    
                      00161         
                      00162         
                      00031     include ps2_codes.inc
                      00001 ;;;;;;;;;;;;;;;;;;;;;;;;;;;;;;;;;;;;;;;;;;;;;;;;;;;;;;;;;;;;;;;;;;;;;;;;;;;;;;;;
                      00002 ;NOM: ps2_rs232
                      00003 ;DESCRIPTION: adapteur de clavier PS/2 vers RS232 TTL. 
                      00004 ;   le MCU PIC12F1572 lit les codes du clavier et les convertis en codes ASCII
                      00005 ;   pour les retransmettre via le EUSART. 
                      00006 ;CRÉATION:  2016-12-22
                      00007 ;AUTEUR: Jacques Deschênes, Copyright 2016
                      00008 ;This file is part of ps2_rs232.
                      00009 ;REF:
MPASM 5.71  /HOME/JACQUES/GITHUB/PS2_RS232/P   4-10-2017  20:20:39         PAGE  5


LOC  OBJECT CODE     LINE SOURCE TEXT
  VALUE

                      00010 ;   http://www.computer-engineering.org/ps2protocol/  
                      00011 ;   http://www.computer-engineering.org/ps2keyboard/scancodes2.html    
                      00012 ;;;;;;;;;;;;;;;;;;;;;;;;;;;;;;;;;;;;;;;;;;;;;;;;;;;;;;;;;;;;;;;;;;;;;;;;;;;;;;;;
                      00013 ;
                      00014 ;This file is part of ps2_rs232.
                      00015 ;
                      00016 ;    ps2_rs232 is free software: you can redistribute it and/or modify
                      00017 ;    it under the terms of the GNU General Public License as published by
                      00018 ;    the Free Software Foundation, either version 3 of the License, or
                      00019 ;    (at your option) any later version.
                      00020 ;
                      00021 ;    ps2_rs232 is distributed in the hope that it will be useful,
                      00022 ;    but WITHOUT ANY WARRANTY; without even the implied warranty of
                      00023 ;    MERCHANTABILITY or FITNESS FOR A PARTICULAR PURPOSE.  See the
                      00024 ;    GNU General Public License for more details.
                      00025 ;
                      00026 ;    You should have received a copy of the GNU General Public License
                      00027 ;    along with ps2_rs232.  If not, see <https://www.gnu.org/licenses/>.
                      00028 ;;;;;;;;;;;;;;;;;;;;;;;;;;;;;;;;;;;;;;;;;;;;;;;;;;;;;;;;;;;;;;;;;;;;;;;;;;;;;;;;
                      00029 
                      00030 ; scancode clavier PS/2
                      00031     radix dec
                      00032     
                      00033 ; commandes contrôle clavier
  000000FF            00034 KBD_RESET equ   0xFF  ; commande RAZ clavier
  000000ED            00035 KBD_LED equ     0xED  ; commande de contrôle des LEDS du clavier
  000000FE            00036 KBD_RESEND equ  0xFE  ; demande de renvoie de la commande ou le code clavier
                      00037  
                      00038 ; codes d'état du clavier
  000000AA            00039 BAT_OK equ      0xAA ; test clavier réussi
  000000FA            00040 KBD_ACK equ     0xFA ; confirmation réception (envoyé par le clavier)
  000000F0            00041 KEY_REL equ     0xF0 ; touche relâchée 
  000000E0            00042 XT_KEY equ      0xE0 ; touche étendue
  000000E1            00043 XT2_KEY equ     0xE1 ; débute séquence de 8 caractère touche PAUSE
                      00044  
                      00045 ; touches de contrôle 
  0000000D            00046 SC_TAB equ          0x0D    ;standard
  0000005A            00047 SC_ENTER equ        0x5A    ;standard
  00000058            00048 SC_CAPS equ         0x58    ;standard
  00000077            00049 SC_NUM equ          0x77    ;standard
  0000007E            00050 SC_SCROLL   equ     0x7E    ;standard
  00000012            00051 SC_LSHIFT equ       0x12    ;standard
  00000059            00052 SC_RSHIFT equ       0x59    ;standard
  00000014            00053 SC_LCTRL equ        0x14    ;standard
  00000011            00054 SC_LALT equ         0x11    ;standard
  00000066            00055 SC_BKSP equ         0x66    ;standard
  00000076            00056 SC_ESC equ          0x76    ;standard
  00000005            00057 SC_F1 equ           0x05    ;standard
  00000006            00058 SC_F2 equ           0x06    ;standard
  00000004            00059 SC_F3 equ           0x04    ;standard
  0000000C            00060 SC_F4 equ           0x0c    ;standard
  00000003            00061 SC_F5 equ           0x03    ;standard
  0000000B            00062 SC_F6 equ           0x0b    ;standard
MPASM 5.71  /HOME/JACQUES/GITHUB/PS2_RS232/P   4-10-2017  20:20:39         PAGE  6


LOC  OBJECT CODE     LINE SOURCE TEXT
  VALUE

  00000083            00063 SC_F7 equ           0x83    ;standard
  0000000A            00064 SC_F8 equ           0x0a    ;standard
  00000001            00065 SC_F9 equ           0x01    ;standard
  00000009            00066 SC_F10 equ          0x09    ;standard
  00000078            00067 SC_F11 equ          0x78    ;standard
  00000007            00068 SC_F12 equ          0x07    ;standard
  0000007C            00069 SC_KPMUL equ        0x7c    ;standard
  0000007B            00070 SC_KPMINUS equ      0x7b    ;standard
  00000079            00071 SC_KPPLUS equ       0x79    ;standard
  00000071            00072 SC_KPDOT equ        0x71    ;standard
  00000070            00073 SC_KP0 equ          0x70    ;standard
  00000069            00074 SC_KP1 equ          0x69    ;standard
  00000072            00075 SC_KP2 equ          0x72    ;standard
  0000007A            00076 SC_KP3 equ          0x7a    ;standard
  0000006B            00077 SC_KP4 equ          0x6b    ;standard
  00000073            00078 SC_KP5 equ          0x73    ;standard
  00000074            00079 SC_KP6 equ          0x74    ;standard
  0000006C            00080 SC_KP7 equ          0x6c    ;standard
  00000075            00081 SC_KP8 equ          0x75    ;standard
  0000007D            00082 SC_KP9 equ          0x7d    ;standard
                      00083 
                      00084 ; codes étendus. i.e. précédés de 0xe0
  00000014            00085 SC_RCTRL equ   0x14
  0000001F            00086 SC_LGUI equ    0x1f
  00000027            00087 SC_RGUI equ    0x27 
  00000011            00088 SC_RALT equ    0x11
  0000002F            00089 SC_APPS equ    0x2f
  00000075            00090 SC_UP    equ    0x75
  00000072            00091 SC_DOWN equ    0x72
  0000006B            00092 SC_LEFT equ    0x6B
  00000074            00093 SC_RIGHT equ   0x74
  00000070            00094 SC_INSERT equ  0x70
  0000006C            00095 SC_HOME equ    0x6c
  0000007D            00096 SC_PGUP equ    0x7d
  0000007A            00097 SC_PGDN equ    0x7a
  00000071            00098 SC_DEL   equ    0x71
  00000069            00099 SC_END   equ    0x69
  0000004A            00100 SC_KPDIV equ   0x4a
  0000005A            00101 SC_KPENTER equ 0x5a
                      00102  
                      00103  
                      00104 ;sécquence de codes 
                      00105 #define SC_PRN      0xe0,0x12,0xe0,0x7c
                      00106 #define SC_PRN_REL  0xe0,0xf0,0x7c,0xe0,0xf0,0x12 
                      00107 #define SC_PAUSE    0xe1,0x14,0x77,0xe1,0xf0,0x14,0xf0,0x77
                      00108 
                      00109  
                      00110 ;touches virtuelles
  00000008            00111 VK_BACK equ     8
  00000009            00112 VK_TAB equ      9
  0000001B            00113 VK_ESC equ      27
  0000000D            00114 VK_ENTER equ    '\r'
  00000020            00115 VK_SPACE equ    ' ' 
MPASM 5.71  /HOME/JACQUES/GITHUB/PS2_RS232/P   4-10-2017  20:20:39         PAGE  7


LOC  OBJECT CODE     LINE SOURCE TEXT
  VALUE

  00000080            00116 VK_F1 equ       128
  00000081            00117 VK_F2 equ       129
  00000082            00118 VK_F3 equ       130
  00000083            00119 VK_F4 equ       131
  00000084            00120 VK_F5 equ       132
  00000085            00121 VK_F6 equ       133
  00000086            00122 VK_F7 equ       134
  00000087            00123 VK_F8 equ       135
  00000088            00124 VK_F9 equ       136
  0000008A            00125 VK_F10 equ      138
  0000008B            00126 VK_F11 equ      139
  0000008C            00127 VK_F12 equ      140
  0000008D            00128 VK_UP equ       141
  0000008E            00129 VK_DOWN equ     142
  0000008F            00130 VK_LEFT equ     143
  00000090            00131 VK_RIGHT equ    144
  00000091            00132 VK_HOME equ     145
  00000092            00133 VK_END equ      146
  00000093            00134 VK_PGUP equ     147
  00000094            00135 VK_PGDN equ     148
  00000095            00136 VK_INSERT equ   149
  00000096            00137 VK_DELETE equ   150
  00000097            00138 VK_APPS equ     151
  00000098            00139 VK_PRN  equ     152
  00000099            00140 VK_PAUSE equ    153
  0000009A            00141 VK_NLOCK equ    154 ; numlock
  0000009B            00142 VK_CLOCK equ    155 ; capslock
  0000009C            00143 VK_LSHIFT equ   156
  0000009D            00144 VK_LCTRL equ    157
  0000009E            00145 VK_LALT equ     158
  0000009F            00146 VK_RSHIFT equ   159
  000000A0            00147 VK_LGUI equ     160
  000000A1            00148 VK_RCTRL equ    161
  000000A2            00149 VK_RGUI equ     162
  000000A3            00150 VK_RALT equ     163
  000000A4            00151 VK_SCROLL equ   164
  000000A5            00152 VK_NUM  equ     165 
  000000A8            00153 VK_CAPS equ     168
                      00154 ;<SHIFT>-<KEY> 
  000000A9            00155 VK_SUP  equ     169
  000000AA            00156 VK_SDOWN equ    170
  000000AB            00157 VK_SLEFT equ    171
  000000AC            00158 VK_SRIGHT equ   172
  000000AD            00159 VK_SHOME equ    173
  000000AE            00160 VK_SEND equ     174
  000000AF            00161 VK_SPGUP equ    175
  000000B0            00162 VK_SPGDN equ    176
                      00163 ;<CTRL>-<KEY>
  000000B1            00164 VK_CUP  equ     177
  000000B2            00165 VK_CDOWN equ    178     
  000000B3            00166 VK_CLEFT equ    179
  000000B4            00167 VK_CRIGHT equ   180
  000000B5            00168 VK_CHOME equ    181
MPASM 5.71  /HOME/JACQUES/GITHUB/PS2_RS232/P   4-10-2017  20:20:39         PAGE  8


LOC  OBJECT CODE     LINE SOURCE TEXT
  VALUE

  000000B6            00169 VK_CEND equ     182
  000000B7            00170 VK_CPGUP equ    183
  000000B8            00171 VK_CPGDN equ    184
                      00172  
                      00032     
  0000                00033     extern std_codes,xt_codes,table_shifted,table_altchar,table_control
                      00034     
8007   3FE4           00035     __config _CONFIG1, _FOSC_INTOSC&_WDTE_OFF
8008   1EFF           00036     __config _CONFIG2, _LVP_OFF&_PLLEN_OFF
                      00037     
                      00038     radix dec
                      00039     
  003D0900            00040 FOSC equ 4000000 ; 4Mhz 
  000F4240            00041 FCY  equ 1000000 ; 1Mhz
  00002580            00042 BAUD equ 9600
                      00043 
  00000005            00044 NRST equ RA5
  00000004            00045 TX equ RA4
  00000002            00046 CLK equ RA2
  00000001            00047 DAT equ RA1
                      00048 
                      00049 #define HEAD_PTRL FSR0L
                      00050 #define HEAD_PTRH FSR0H
                      00051 #define QUEUE_HEAD INDF0 
                      00052 #define TAIL_PTRL FSR1L
                      00053 #define TAIL_PTRH FSR1H 
                      00054 #define QUEUE_TAIL INDF1
                      00055  
                      00056 ; indicateurs booléens pour kbd_state
  00000000            00057 F_SCRLL equ     0 ; scroll lock kbd_leds
  00000001            00058 F_NUM equ       1 ; numlock dans kbd_leds
  00000002            00059 F_CAPS equ      2 ; capslock dans kbd_leds
  00000003            00060 F_SHIFT equ     3  ; shift dans kbd_leds
  00000004            00061 F_CTRL equ      4  ; touche CTRL droite ou gauche enfoncée
  00000005            00062 F_ALT equ       5  ; touche ALT enfoncée
  00000006            00063 F_ACK   equ     6  ;  mis à 1 par réception d'un code ACK
  00000007            00064 F_BATOK equ     7  ; mis à 1 par réception d'un code BAT_OK     
                      00065         
                      00066 ; indicateurs booléens pour rxflags 
  00000001            00067 F_XT equ        1    
  00000002            00068 F_REL equ       2
                      00069 
                      00070  
                      00071 ;;;;;;;;;;;;;;;;;;;;
                      00072 ;   macros
                      00073 ;;;;;;;;;;;;;;;;;;;;
                      00074  
                      00075 case macro n, label
                      00076     xorlw n
                      00077     skpnz
                      00078     bra label
                      00079     xorlw n
                      00080     endm
MPASM 5.71  /HOME/JACQUES/GITHUB/PS2_RS232/P   4-10-2017  20:20:39         PAGE  9


LOC  OBJECT CODE     LINE SOURCE TEXT
  VALUE

                      00081     
                      00082 search macro table
                      00083     movwf t0
                      00084     clrf t1
                      00085     call table
                      00086     endm
                      00087  
                      00088 queue  udata 0x20
0020                  00089 in_queue res 16  ; file en réception codes clavier
                      00090  
                      00091     udata_shr 0x70
0070                  00092 qhead res 1  ; pointeur de tête file in_queue
0071                  00093 qtail res 1  ; pointeur de queue file in_queue
0072                  00094 bitcntr res 1  ; compteur de bits réception du clavier
0073                  00095 in_byte res 1  ; construction de l'octeten réception du clavier
0074                  00096 parity res 1   ; contrôle de la parité sur code reçu de clavier
0075                  00097 cmd res 1      ; octet à envoyer au clavier
0076                  00098 kbd_state res 1; états des touches d'alteration du clavier
0077                  00099 rxflags res 1  ; indicateur booléens utilisés pour la conversion des caractères
0078                  00100 t0 res 1    ; registre temporaire
0079                  00101 t1 res 1    ; registre temporaire
                      00102  
                      00103     org 0
                      00104 ;;;;;;;;;;;;;;;;;;;;;;
                      00105 ;  point d'entrée
                      00106 ;  réinitialisation
                      00107 ;  du MCU
                      00108 ;;;;;;;;;;;;;;;;;;;;;;;    
0000                  00109 rst:
0000   0023           00110     banksel ANSELA
Message[302]: Register in operand not in bank 0.  Ensure that bank bits are correct.
0001   018C           00111     clrf ANSELA
0002   2???           00112     goto init
0003   0000           00113     nop
                      00114     
                      00115     org 4
                      00116 ;;;;;;;;;;;;;;;;;;;;;;;;;
                      00117 ; service d'intterruption
                      00118 ;;;;;;;;;;;;;;;;;;;;;;;;;    
                      00119 ; cette interruption est déclenchée
                      00120 ; lorsque le signal clock du clavier
                      00121 ; passe à 0.    
                      00122 ; chaque interruption reçoit
                      00123 ; 1 bit du clavier
                      00124 ; lorsque la réception d'un octet est
                      00125 ; complétée s'il n'y a pas d'erreur
                      00126 ; de réception l'octet sauvegardé 
                      00127 ; dans la file 'in_queue'    
0004                  00128 isr:    
0004   0027           00129     banksel IOCAF
0005   30FF           00130     movlw 255
Message[302]: Register in operand not in bank 0.  Ensure that bank bits are correct.
0006   0613           00131     xorwf IOCAF,W
MPASM 5.71  /HOME/JACQUES/GITHUB/PS2_RS232/P   4-10-2017  20:20:39         PAGE 10


LOC  OBJECT CODE     LINE SOURCE TEXT
  VALUE

Message[302]: Register in operand not in bank 0.  Ensure that bank bits are correct.
0007   0593           00132     andwf IOCAF,F
                      00133 ;    bcf INTCON,IOCIF
0008   0020           00134     banksel PORTA
0009   08??           00135     movfw bitcntr
000A   1903           00136     skpnz
000B   3???           00137     bra start_bit
000C   3A02           00138     xorlw 2
000D   1903           00139     skpnz
000E   3???           00140     bra parity_bit
000F   08??           00141     movfw bitcntr
0010   3A01           00142     xorlw 1
0011   1903           00143     skpnz
0012   3???           00144     bra stop_bit
0013   36??           00145     lsrf in_byte,F
0014   1C8C           00146     btfss PORTA,DAT
0015   3???           00147     bra $+3
0016   1780           00148     bsf in_byte,7
0017   0A??           00149     incf parity,F
0018   3???           00150     bra isr_exit
0019                  00151 parity_bit:
0019   188C           00152     btfsc PORTA,DAT
001A   0A??           00153     incf parity,F
001B   3???           00154     bra isr_exit
001C                  00155 stop_bit:
001C   1C8C           00156     btfss PORTA,DAT
001D   3???           00157     bra isr_exit ; erreur de réception, code non retenu.
001E                  00158 parity_check:  
001E   1C00           00159     btfss parity,0
001F   3???           00160     bra isr_exit ; erreur de parité, code non retenu.
0020   30AA           00161     movlw BAT_OK
0021   06??           00162     xorwf in_byte,W
0022   1D03           00163     skpz
0023   3???           00164     bra $+3
0024   1780           00165     bsf kbd_state,F_BATOK
0025   3???           00166     bra isr_exit
0026   30FA           00167     movlw KBD_ACK
0027   06??           00168     xorwf in_byte,W
0028   1D03           00169     skpz
0029   3???           00170     bra $+3
002A   1700           00171     bsf kbd_state,F_ACK
002B   3???           00172     bra isr_exit
002C   30FE           00173     movlw KBD_RESEND
002D   06??           00174     xorwf in_byte,W
002E   1D03           00175     skpz
002F   3???           00176     bra $+3
0030   1300           00177     bcf kbd_state,F_ACK
0031   3???           00178     bra isr_exit
0032   30??           00179     movlw in_queue
0033   0086           00180     movwf TAIL_PTRL
0034   08??           00181     movfw qtail
0035   0786           00182     addwf TAIL_PTRL,F
0036   08??           00183     movfw in_byte
MPASM 5.71  /HOME/JACQUES/GITHUB/PS2_RS232/P   4-10-2017  20:20:39         PAGE 11


LOC  OBJECT CODE     LINE SOURCE TEXT
  VALUE

0037   0081           00184     movwf QUEUE_TAIL
0038   0A??           00185     incf qtail,F
0039   300F           00186     movlw 15
003A   05??           00187     andwf qtail,F
003B   3???           00188     bra isr_exit
003C                  00189 start_bit:
003C   01??           00190     clrf parity
003D   300B           00191     movlw 11
003E   00??           00192     movwf bitcntr
003F                  00193 isr_exit:
003F   03??           00194     decf bitcntr,F
0040   0009           00195     retfie
                      00196 
                      00197 ;uart_send
                      00198 ; envoie le contenu de WREG via 
                      00199 ; le périphérique EUSART    
0041                  00200 uart_send:
0041   0023           00201     banksel TXSTA
Message[302]: Register in operand not in bank 0.  Ensure that bank bits are correct.
0042   1C9E           00202     btfss TXSTA,TRMT
0043   3???           00203     bra $-1
Message[302]: Register in operand not in bank 0.  Ensure that bank bits are correct.
0044   009A           00204     movwf TXREG
0045   0103           00205     clrw
0046   0008           00206     return
                      00207     
                      00208 ;to_hex
                      00209 ; convertie le digit 
                      00210 ;qui est dans WREG en
                      00211 ;caractère hexadécimal
0047                  00212 to_hex:
0047   3E30           00213     addlw '0'
0048   00??           00214     movwf t1
0049   303A           00215     movlw '9'+1
004A   02??           00216     subwf t1,W
004B   1803           00217     skpnc
004C   3E07           00218     addlw 7
004D   3E3A           00219     addlw '9'+1
004E   0008           00220     return
                      00221 
                      00222 #ifdef DEBUG    
                      00223 ;send_hex
                      00224 ;envoie WREG en hexadécimal via EUSART    
                      00225 hex_send:
                      00226     movwf t0
                      00227     movlw 0xf0
                      00228     andwf t0,W
                      00229     swapf WREG
                      00230     call to_hex
                      00231     call uart_send
                      00232     movlw 0xf
                      00233     andwf   t0,W
                      00234     call to_hex
MPASM 5.71  /HOME/JACQUES/GITHUB/PS2_RS232/P   4-10-2017  20:20:39         PAGE 12


LOC  OBJECT CODE     LINE SOURCE TEXT
  VALUE

                      00235     call uart_send
                      00236     movlw 32
                      00237     call uart_send
                      00238     return
                      00239 #endif
                      00240     
                      00241 ;micro_delay
                      00242 ; boucle de délais 
                      00243 ; entrée: WREG délais en multiple de 3 µSec
                      00244 ;   TCY=1µsec on a 4 µsec d'overhead  call/return         
004F                  00245 micro_delay:
Message[305]: Using default destination of 1 (file).
004F   0B89           00246     decfsz WREG
0050   3???           00247     bra $-1
0051   0008           00248     return
                      00249 
0052                  00250 wait_kbd_clock:
0052   0020           00251     banksel PORTA
0053   1D0C           00252     btfss PORTA,CLK
0054   3???           00253     bra $-1
0055   190C           00254     btfsc PORTA,CLK
0056   3???           00255     bra $-1
0057   0008           00256     return
                      00257     
                      00258 ;kbd_send
                      00259 ;envoie un octet au clavier
                      00260 ; argument:
                      00261 ;  WREG: octet à envoyer
                      00262 ; sortie:
                      00263 ;   rien    
0058                  00264 kbd_send:
0058   00??           00265     movwf cmd
0059   3008           00266     movlw 8
005A   00??           00267     movwf bitcntr
005B   118B           00268     bcf INTCON,IOCIE ; blocage des interruptions
005C   01??           00269     clrf parity
                      00270 ; prise de contrôle de l'interface PS/2
                      00271 ; par le MCU    
005D   0021           00272     banksel TRISA
Message[302]: Register in operand not in bank 0.  Ensure that bank bits are correct.
005E   110C           00273     bcf TRISA, CLK
005F   0022           00274     banksel LATA
Message[302]: Register in operand not in bank 0.  Ensure that bank bits are correct.
0060   110C           00275     bcf LATA,CLK
0061   3032           00276     movlw 150/3 ; délais 150µsec
0062   2???           00277     call micro_delay
0063   0021           00278     banksel TRISA
Message[302]: Register in operand not in bank 0.  Ensure that bank bits are correct.
0064   108C           00279     bcf TRISA, DAT
0065   0022           00280     banksel LATA
Message[302]: Register in operand not in bank 0.  Ensure that bank bits are correct.
0066   108C           00281     bcf LATA,DAT  ; start bit
0067   0021           00282     banksel TRISA
MPASM 5.71  /HOME/JACQUES/GITHUB/PS2_RS232/P   4-10-2017  20:20:39         PAGE 13


LOC  OBJECT CODE     LINE SOURCE TEXT
  VALUE

Message[302]: Register in operand not in bank 0.  Ensure that bank bits are correct.
0068   150C           00283     bsf TRISA,CLK ; relâche la ligne clock
0069                  00284 kbd_send_loop:
0069   2???           00285     call wait_kbd_clock
006A   108C           00286     bcf PORTA,DAT
006B   1C00           00287     btfss cmd,0
006C   3???           00288     bra $+3
006D   148C           00289     bsf PORTA,DAT
006E   0A??           00290     incf parity,F
006F   36??           00291     lsrf cmd,F
Message[305]: Using default destination of 1 (file).
0070   0B??           00292     decfsz bitcntr
0071   3???           00293     bra kbd_send_loop
                      00294 ; envoie paritée    
0072   2???           00295     call wait_kbd_clock
0073   108C           00296     bcf PORTA,DAT
0074   1C00           00297     btfss parity,0
0075   148C           00298     bsf PORTA,DAT
0076   2???           00299     call wait_kbd_clock
                      00300 ;envoie stop bit    
0077   0021           00301     banksel TRISA
Message[302]: Register in operand not in bank 0.  Ensure that bank bits are correct.
0078   148C           00302     bsf TRISA,DAT ; relâche ligne data
0079   0020           00303     banksel PORTA  
007A   1D0C           00304     btfss PORTA,CLK
007B   3???           00305     bra $-1
007C   3006           00306     movlw (1<<DAT)|(1<<CLK)
007D   00??           00307     movwf t0
                      00308 ;attend bit ack DAT et CLK à zéro 
007E   08??           00309     movfw t0
007F   050C           00310     andwf PORTA,W
0080   1D03           00311     skpz
0081   3???           00312     bra $-3
                      00313 ;attend relâchement des lignes    
0082   08??           00314     movfw t0
0083   050C           00315     andwf PORTA,W
0084   06??           00316     xorwf t0,W
0085   1D03           00317     skpz
0086   3???           00318     bra $-4
                      00319 ; réactive interruption
0087   0027           00320     banksel IOCAF
Message[302]: Register in operand not in bank 0.  Ensure that bank bits are correct.
0088   0193           00321     clrf IOCAF
0089   158B           00322     bsf INTCON,IOCIE
008A   0008           00323     return
                      00324 
                      00325 ;set_leds
                      00326 ;contrôle les LEDs du clavier
008B                  00327 set_leds:
008B   30ED           00328     movlw KBD_LED
008C   1300           00329     bcf kbd_state,F_ACK
008D   2???           00330     call kbd_send
008E   1F00           00331     btfss kbd_state,F_ACK
MPASM 5.71  /HOME/JACQUES/GITHUB/PS2_RS232/P   4-10-2017  20:20:39         PAGE 14


LOC  OBJECT CODE     LINE SOURCE TEXT
  VALUE

008F   3???           00332     bra $-1
0090   1300           00333     bcf kbd_state,F_ACK
0091   3007           00334     movlw 7
0092   05??           00335     andwf kbd_state,W
0093   2???           00336     call kbd_send
0094   1F00           00337     btfss kbd_state,F_ACK
0095   3???           00338     bra $-1
0096   0008           00339     return
                      00340 
                      00341 ;signal_reset
                      00342 ; la combinaison de touches
                      00343 ; <CTRL>+<ALT>+<DEL> a été enfoncée.
                      00344 ; la broche NRST est mise à zéro
                      00345 ; pour 100µSec pour signaler à l'hôte
                      00346 ; une demande de réinitialisation    
0097                  00347 signal_reset:
0097   0020           00348     banksel PORTA
0098   128C           00349     bcf PORTA, NRST
0099   3019           00350     movlw 25
009A   0000           00351     nop
Message[305]: Using default destination of 1 (file).
009B   0B89           00352     decfsz WREG
009C   2???           00353     goto $-2
009D   168C           00354     bsf PORTA, NRST
009E   0008           00355     return
                      00356     
                      00357     
                      00358 ; attend la séquence des codes PAUSE    
009F                  00359 get_pause: 
009F   3008           00360     movlw 8
00A0   00??           00361     movwf t0
00A1                  00362 wait_code:
00A1   08??           00363     movfw qhead
00A2   06??           00364     xorwf qtail,W
00A3   1903           00365     skpnz
00A4   3???           00366     bra wait_code
00A5   0A??           00367     incf qhead,F ;jette le code
00A6   300F           00368     movlw 15
00A7   05??           00369     andwf qhead,F
Message[305]: Using default destination of 1 (file).
00A8   0B??           00370     decfsz  t0
00A9   3???           00371     bra wait_code
00AA   3099           00372     movlw VK_PAUSE
00AB   2???           00373     call uart_send
00AC   03??           00374     decf qhead,F
00AD   0008           00375     return
                      00376 
                      00377     
                      00378 ;_shifted
                      00379 ; retourne le caractère de la touche lorsque SHIFT est enfoncée
                      00380 ; entrée: WREG=caractère non shifté    
                      00381 ; sortie: WREG=caractère shifté|0    
00AE                  00382 _shifted:
MPASM 5.71  /HOME/JACQUES/GITHUB/PS2_RS232/P   4-10-2017  20:20:39         PAGE 15


LOC  OBJECT CODE     LINE SOURCE TEXT
  VALUE

00AE   08??           00383     movfw t1
00AF   0A??           00384     incf t1,F
00B0   2???           00385     call table_shifted
00B1   0889           00386     movf WREG,F
00B2   1903           00387     skpnz
00B3   0008           00388     return ; pas dans cette table
00B4   06??           00389     xorwf t0,W
00B5   1903           00390     skpnz
00B6   3???           00391     bra shifted_found
00B7   0A??           00392     incf t1,F
00B8   3???           00393     bra _shifted
00B9                  00394 shifted_found:
00B9   08??           00395     movfw t1
00BA   2???           00396     call table_shifted
00BB   0008           00397     return
                      00398     
00BC                  00399 _altchar:
00BC   08??           00400     movfw t1
00BD   0A??           00401     incf t1,F
00BE   2???           00402     call table_altchar
00BF   0889           00403     movf WREG,F
00C0   1903           00404     skpnz
00C1   0008           00405     return ; pas dans cette table
00C2   06??           00406     xorwf t0,W
00C3   1903           00407     skpnz
00C4   3???           00408     bra altchar_found
00C5   0A??           00409     incf t1,F
00C6   3???           00410     bra _altchar
00C7                  00411 altchar_found:
00C7   08??           00412     movfw t1
00C8   2???           00413     call table_altchar
00C9   0008           00414     return
                      00415     
                      00416 
00CA                  00417 _control:
00CA   3041           00418     movlw 'A'
00CB   02??           00419     subwf t0,W
00CC   1C03           00420     skpc
00CD   3???           00421     bra ctrl_loop
00CE   305B           00422     movlw 'Z'+1
00CF   02??           00423     subwf t0,W
00D0   1803           00424     skpnc
00D1   3???           00425     bra ctrl_loop
00D2   3040           00426     movlw 'A'-1
00D3   02??           00427     subwf t0,W
00D4   0008           00428     return
00D5                  00429 ctrl_loop:    
00D5   08??           00430     movfw t1
00D6   0A??           00431     incf t1,F
00D7   2???           00432     call table_control
00D8   0889           00433     movf WREG,F
00D9   1903           00434     skpnz
00DA   0008           00435     return
MPASM 5.71  /HOME/JACQUES/GITHUB/PS2_RS232/P   4-10-2017  20:20:39         PAGE 16


LOC  OBJECT CODE     LINE SOURCE TEXT
  VALUE

00DB   06??           00436     xorwf t0,W
00DC   1903           00437     skpnz
00DD   3???           00438     bra control_found
00DE   0A??           00439     incf t1,F
00DF   3???           00440     bra ctrl_loop
00E0                  00441 control_found:
00E0   08??           00442     movfw t1
00E1   2???           00443     call table_control
00E2   0008           00444     return
                      00445     
                      00446     
                      00447 ;alpha
                      00448 ;vérifie si WREG est une lettre {'A'..'Z'}
                      00449 ; sortie:
                      00450 ;   C=1 -> alpha
                      00451 ;   C=0 -> non alpha    
00E3                  00452 alpha:
00E3   00??           00453     movwf t0
00E4   3041           00454     movlw 'A'
00E5   02??           00455     subwf t0,W
00E6   1C03           00456     skpc
00E7   3???           00457     bra not_alpha
00E8   08??           00458     movfw t0
00E9   3C5A           00459     sublw 'Z'
00EA                  00460 not_alpha:
00EA   08??           00461     movfw t0
00EB   0008           00462     return
                      00463 
                      00464 ;if_shifted
                      00465 ; vérifie l'état de F_CAPS et F_SHIFT
                      00466 ; et applique la transformation requise
                      00467 ; au contenu de WREG
                      00468 ; entré: WREG contient le caractère
                      00469 ; sortie: WREG contient le caractère modifié (si requis)
00EC                  00470 if_shifted:
00EC   2???           00471     call alpha
00ED   1803           00472     skpnc
00EE   3???           00473     bra letter
00EF   1D80           00474     btfss kbd_state,F_SHIFT
00F0   0008           00475     return
                      00476     search _shifted
00F1   00??               M     movwf t0
00F2   01??               M     clrf t1
00F3   2???               M     call _shifted
00F4   0008           00477     return
00F5                  00478 letter:
00F5   1980           00479     btfsc kbd_state,F_SHIFT
00F6   3???           00480     bra shift_on
00F7   1D00           00481     btfss kbd_state,F_CAPS
00F8   3E20           00482     addlw 32
00F9   0008           00483     return
00FA                  00484 shift_on:
00FA   1900           00485     btfsc kbd_state,F_CAPS
MPASM 5.71  /HOME/JACQUES/GITHUB/PS2_RS232/P   4-10-2017  20:20:39         PAGE 17


LOC  OBJECT CODE     LINE SOURCE TEXT
  VALUE

00FB   3E20           00486     addlw 32
00FC   0008           00487     return
                      00488 
                      00489 ;translate
                      00490 ; converti le scancode en valeur ASCII ou touche virtuelle
                      00491 ; entrée: WREG=scancode    
00FD                  00492 translate:
00FD   00??           00493     movwf t0
00FE   01??           00494     clrf t1
00FF                  00495 trans_loop:
00FF   08??           00496     movfw t1
0100   0A??           00497     incf t1,F
0101   1C80           00498     btfss rxflags,F_XT
0102   2???           00499     call std_codes
0103   1880           00500     btfsc rxflags,F_XT
0104   2???           00501     call xt_codes
0105   1903           00502     skpnz
0106   0008           00503     return ; not found
0107   06??           00504     xorwf t0,W
0108   1903           00505     skpnz
0109   3???           00506     bra found
010A   0A??           00507     incf t1,F
010B   3???           00508     bra trans_loop
010C                  00509 found:
010C   08??           00510     movfw t1
010D   1C80           00511     btfss rxflags,F_XT
010E   2???           00512     call std_codes
010F   1880           00513     btfsc rxflags,F_XT
0110   2???           00514     call xt_codes
0111   0008           00515     return
                      00516     
                      00517 ;code_convert
                      00518 ; conversion code clavier
                      00519 ; vers code ASCII
                      00520 ; argument:
                      00521 ;  code dans in_queue
                      00522 ; sortie:
                      00523 ;   code ASCII dans out_queue
0112                  00524 code_convert:
0112   30??           00525     movlw in_queue
0113   0084           00526     movwf HEAD_PTRL
0114   08??           00527     movfw qhead
Message[305]: Using default destination of 1 (file).
0115   0784           00528     addwf HEAD_PTRL
0116   0800           00529     movfw QUEUE_HEAD
                      00530     case KEY_REL, key_release
0117   3AF0               M     xorlw KEY_REL
0118   1903               M     skpnz
0119   3???               M     bra key_release
011A   3AF0               M     xorlw KEY_REL
                      00531     case XT_KEY, xkey
011B   3AE0               M     xorlw XT_KEY
011C   1903               M     skpnz
MPASM 5.71  /HOME/JACQUES/GITHUB/PS2_RS232/P   4-10-2017  20:20:39         PAGE 18


LOC  OBJECT CODE     LINE SOURCE TEXT
  VALUE

011D   3???               M     bra xkey
011E   3AE0               M     xorlw XT_KEY
                      00532     case XT2_KEY, pkey
011F   3AE1               M     xorlw XT2_KEY
0120   1903               M     skpnz
0121   3???               M     bra pkey
0122   3AE1               M     xorlw XT2_KEY
0123   2???           00533     call translate
0124   1903           00534     skpnz
0125   3???           00535     bra ignore_code
                      00536     case VK_LSHIFT, shiftkey
0126   3A9C               M     xorlw VK_LSHIFT
0127   1903               M     skpnz
0128   3???               M     bra shiftkey
0129   3A9C               M     xorlw VK_LSHIFT
                      00537     case VK_RSHIFT, shiftkey
012A   3A9F               M     xorlw VK_RSHIFT
012B   1903               M     skpnz
012C   3???               M     bra shiftkey
012D   3A9F               M     xorlw VK_RSHIFT
                      00538     case VK_CAPS, capskey
012E   3AA8               M     xorlw VK_CAPS
012F   1903               M     skpnz
0130   3???               M     bra capskey
0131   3AA8               M     xorlw VK_CAPS
                      00539     case VK_LCTRL, ctrlkey
0132   3A9D               M     xorlw VK_LCTRL
0133   1903               M     skpnz
0134   3???               M     bra ctrlkey
0135   3A9D               M     xorlw VK_LCTRL
                      00540     case VK_RCTRL, ctrlkey
0136   3AA1               M     xorlw VK_RCTRL
0137   1903               M     skpnz
0138   3???               M     bra ctrlkey
0139   3AA1               M     xorlw VK_RCTRL
                      00541     case VK_LALT, altkey
013A   3A9E               M     xorlw VK_LALT
013B   1903               M     skpnz
013C   3???               M     bra altkey
013D   3A9E               M     xorlw VK_LALT
                      00542     case VK_RALT, altkey
013E   3AA3               M     xorlw VK_RALT
013F   1903               M     skpnz
0140   3???               M     bra altkey
0141   3AA3               M     xorlw VK_RALT
                      00543     case VK_NUM, numkey
0142   3AA5               M     xorlw VK_NUM
0143   1903               M     skpnz
0144   3???               M     bra numkey
0145   3AA5               M     xorlw VK_NUM
                      00544     case A_DEL, delete
0146   3A7F               M     xorlw A_DEL
0147   1903               M     skpnz
MPASM 5.71  /HOME/JACQUES/GITHUB/PS2_RS232/P   4-10-2017  20:20:39         PAGE 19


LOC  OBJECT CODE     LINE SOURCE TEXT
  VALUE

0148   3???               M     bra delete
0149   3A7F               M     xorlw A_DEL
014A   1900           00545     btfsc rxflags,F_REL
014B   3???           00546     bra ignore_code
014C   1A00           00547     btfsc kbd_state,F_CTRL
014D   3???           00548     bra ctrl_down
014E   1A80           00549     btfsc kbd_state,F_ALT
014F   3???           00550     bra alt_down
0150   2???           00551     call if_shifted
0151   2???           00552     call uart_send
0152   3???           00553     bra clear_flags
0153                  00554 delete:
0153   1A00           00555     btfsc kbd_state,F_CTRL
0154   1E80           00556     btfss kbd_state,F_ALT
0155   3???           00557     bra $-4
                      00558 #define HARD_RESET
                      00559 #ifdef SOFT_RESET    
                      00560     movlw 20 ; ASCII DC4
                      00561     call uart_send
                      00562 #else  ; hardware reset  
0156   2???           00563     call signal_reset
                      00564 #endif    
0157   3???           00565     bra clear_flags
0158                  00566 ctrl_down:
                      00567     search _control
0158   00??               M     movwf t0
0159   01??               M     clrf t1
015A   2???               M     call _control
015B   1D03           00568     skpz
015C   2???           00569     call uart_send
015D   3???           00570     bra clear_flags
015E                  00571 alt_down:
                      00572     search _altchar
015E   00??               M     movwf t0
015F   01??               M     clrf t1
0160   2???               M     call _altchar
0161   1D03           00573     skpz
0162   2???           00574     call uart_send
0163   3???           00575     bra clear_flags
0164                  00576 ctrlkey:
0164   1200           00577     bcf kbd_state, F_CTRL
0165   1D00           00578     btfss rxflags, F_REL
0166   1600           00579     bsf kbd_state,F_CTRL
0167   3???           00580     bra clear_flags
0168                  00581 altkey:
0168   1280           00582     bcf kbd_state, F_ALT
0169   1D00           00583     btfss rxflags, F_REL
016A   1680           00584     bsf kbd_state,F_ALT
016B   3???           00585     bra clear_flags
016C                  00586 capskey: ; touche verr. majuscule
016C   1900           00587     btfsc rxflags, F_REL
016D   3???           00588     bra clear_flags
016E   3004           00589     movlw 1<<F_CAPS
MPASM 5.71  /HOME/JACQUES/GITHUB/PS2_RS232/P   4-10-2017  20:20:39         PAGE 20


LOC  OBJECT CODE     LINE SOURCE TEXT
  VALUE

016F   06??           00590     xorwf kbd_state,F
0170   2???           00591     call set_leds
0171   3???           00592     bra clear_flags
0172                  00593 numkey:
0172   1900           00594     btfsc rxflags, F_REL
0173   3???           00595     bra clear_flags
0174   3002           00596     movlw 1<<F_NUM
0175   06??           00597     xorwf kbd_state,F
0176   2???           00598     call set_leds
0177   3???           00599     bra clear_flags
0178                  00600 shiftkey: ; touche shift droite|gauche
0178   1180           00601     bcf kbd_state,F_SHIFT
0179   1D00           00602     btfss rxflags,F_REL
017A   1580           00603     bsf kbd_state,F_SHIFT
017B   3???           00604     bra clear_flags
017C                  00605 key_release: ; touche relâchée
017C   1500           00606     bsf rxflags, F_REL
017D   3???           00607     bra code_done
017E                  00608 pkey: ; PAUSE key   
017E   2???           00609     call get_pause
017F   3???           00610     bra code_done
0180                  00611 xkey: ; extended key
0180   1480           00612     bsf rxflags, F_XT
0181   3???           00613     bra code_done
0182                  00614 clear_flags:    
0182                  00615 ignore_code:
0182   1100           00616     bcf rxflags,F_REL
0183   1080           00617     bcf rxflags,F_XT
0184                  00618 code_done:
0184   0A??           00619     incf qhead,F
0185   300F           00620     movlw 15
0186   05??           00621     andwf qhead,F
0187   0008           00622     return
                      00623     
                      00624 ;;;;;;;;;;;;;;;;;;;;;;;;;;;;
                      00625 ; initialisation matérielle
                      00626 ;;;;;;;;;;;;;;;;;;;;;;;;;;;;    
0188                  00627 init:
                      00628 ; configure Fosc à 4Mhz
0188   0021           00629     banksel OSCCON
0189   3068           00630     movlw 0xD<<IRCF0 ; 1Mhz x 4 (PLL)
Message[302]: Register in operand not in bank 0.  Ensure that bank bits are correct.
018A   0099           00631     movwf OSCCON
018B   0022           00632     banksel LATA
Message[302]: Register in operand not in bank 0.  Ensure that bank bits are correct.
018C   168C           00633     bsf LATA, NRST
                      00634 ; configure TX sur la broche RA4    
018D   0022           00635     banksel APFCON
Message[302]: Register in operand not in bank 0.  Ensure that bank bits are correct.
018E   151D           00636     bsf APFCON, TXCKSEL
018F   0021           00637     banksel TRISA
Message[302]: Register in operand not in bank 0.  Ensure that bank bits are correct.
0190   120C           00638     bcf TRISA, TX
MPASM 5.71  /HOME/JACQUES/GITHUB/PS2_RS232/P   4-10-2017  20:20:39         PAGE 21


LOC  OBJECT CODE     LINE SOURCE TEXT
  VALUE

Message[302]: Register in operand not in bank 0.  Ensure that bank bits are correct.
0191   128C           00639     bcf TRISA, NRST
                      00640 ; configuration du EUSART
                      00641 ; mode asynchrone 9600 BAUD
                      00642 ; communication à sens unique    
0192   0023           00643     banksel SPBRG
Message[302]: Register in operand not in bank 0.  Ensure that bank bits are correct.
0193   159F           00644     bsf BAUDCON, BRG16
0194   3019           00645     movlw ((FOSC/16/BAUD)&0xff)-1
Message[302]: Register in operand not in bank 0.  Ensure that bank bits are correct.
0195   009B           00646     movwf SPBRGL
0196   3000           00647     movlw (FOSC/16/BAUD-1)>>8
Message[302]: Register in operand not in bank 0.  Ensure that bank bits are correct.
0197   009C           00648     movwf SPBRGH
Message[302]: Register in operand not in bank 0.  Ensure that bank bits are correct.
0198   169E           00649     bsf TXSTA,TXEN
Message[302]: Register in operand not in bank 0.  Ensure that bank bits are correct.
0199   179D           00650     bsf RCSTA, SPEN
                      00651 ; configuration interruption sur broche CLK
                      00652 ; pour produire une interruption sur
                      00653 ; la transistion descendante.
019A   0027           00654     banksel IOCAN
Message[302]: Register in operand not in bank 0.  Ensure that bank bits are correct.
019B   1512           00655     bsf IOCAN,CLK
019C   0020           00656     banksel INTCON
                      00657 ; les broches associées au clavier sont
                      00658 ; sont configurées Open Drain    
019D   0025           00659     banksel ODCONA
Message[302]: Register in operand not in bank 0.  Ensure that bank bits are correct.
019E   150C           00660     bsf ODCONA, CLK
Message[302]: Register in operand not in bank 0.  Ensure that bank bits are correct.
019F   148C           00661     bsf ODCONA, DAT
                      00662 ; on désactive les pullup sur CLK et DAT.
                      00663 ; pullup externes.    
01A0   0024           00664     banksel WPUA
01A1   30F9           00665     movlw ~((1<<CLK)|(1<<DAT))
Message[302]: Register in operand not in bank 0.  Ensure that bank bits are correct.
01A2   008C           00666     movwf WPUA
                      00667 ; raz ram
01A3   3020           00668     movlw 0x20
01A4   0084           00669     movwf FSR0L
01A5   0185           00670     clrf FSR0H
01A6   3060           00671     movlw 96
01A7   0180           00672     clrf INDF0
01A8   0A84           00673     incf FSR0L,F
Message[305]: Using default destination of 1 (file).
01A9   0B89           00674     decfsz WREG
01AA   3???           00675     bra $-3
                      00676 ; initialisation des variables
01AB   0185           00677     clrf  HEAD_PTRH
01AC   0187           00678     clrf  TAIL_PTRH
01AD   30??           00679     movlw in_queue
01AE   0084           00680     movwf HEAD_PTRL
MPASM 5.71  /HOME/JACQUES/GITHUB/PS2_RS232/P   4-10-2017  20:20:39         PAGE 22


LOC  OBJECT CODE     LINE SOURCE TEXT
  VALUE

01AF   0084           00681     movwf HEAD_PTRL
                      00682 ; activation des interruptions
01B0   100B           00683     bcf INTCON, IOCIF
01B1   158B           00684     bsf INTCON,IOCIE
01B2   178B           00685     bsf INTCON,GIE
                      00686 ;envoie une commande de réinitialisation au clavier
01B3   30FF           00687     movlw KBD_RESET
01B4   2???           00688     call kbd_send
                      00689 ; attend réception ACK
01B5   1F00           00690     btfss kbd_state,F_ACK
01B6   3???           00691     bra $-1
                      00692 ; attend réception BAT_OK
01B7   1F80           00693     btfss kbd_state,F_BATOK
01B8   3???           00694     bra $-1
01B9   2???           00695     call set_leds
                      00696 #ifdef DEBUG    
                      00697 test:    
                      00698     movlw 'O'
                      00699     call uart_send
                      00700     movlw 'K'
                      00701     call uart_send
                      00702     movlw '\r'
                      00703     call uart_send
                      00704     movlw '\n'
                      00705     call uart_send
                      00706 #endif
                      00707     
                      00708 ;;;;;;;;;;;;;;;;;;;    
                      00709 ; boucle principale
                      00710 ;;;;;;;;;;;;;;;;;;;    
01BA                  00711 main:
                      00712 ;s'il y a des caractères dans la 
                      00713 ; file les envoyer via l'EUSART
01BA   08??           00714     movfw qhead
01BB   06??           00715     xorwf qtail,W
01BC   1903           00716     skpnz
01BD   3???           00717     bra main
                      00718 ;#define SHOW_HEX    
                      00719 #ifdef SHOW_HEX
                      00720     movlw in_queue
                      00721     movwf HEAD_PTRL
                      00722     movfw qhead
                      00723     addwf HEAD_PTRL
                      00724     movfw QUEUE_HEAD
                      00725     call hex_send
                      00726     incf qhead,F
                      00727     movlw 15
                      00728     andwf qhead,F
                      00729     bra main
                      00730 #else    
01BE   2???           00731     call code_convert
                      00732 #endif    
01BF   3???           00733     bra main
MPASM 5.71  /HOME/JACQUES/GITHUB/PS2_RS232/P   4-10-2017  20:20:39         PAGE 23


LOC  OBJECT CODE     LINE SOURCE TEXT
  VALUE

                      00734     
                      00735 
3FE4 1EFF             00736     end
MPASM 5.71  /HOME/JACQUES/GITHUB/PS2_RS232/P   4-10-2017  20:20:39         PAGE 24


SYMBOL TABLE
  LABEL                             VALUE 

ABDEN                             00000000
ABDOVF                            00000007
ADCON0                            0000009D
ADCON1                            0000009E
ADCON2                            0000009F
ADCS0                             00000004
ADCS1                             00000005
ADCS2                             00000006
ADDEN                             00000003
ADFM                              00000007
ADFVR0                            00000000
ADFVR1                            00000001
ADGO                              00000001
ADIE                              00000006
ADIF                              00000006
ADON                              00000000
ADPREF0                           00000000
ADPREF1                           00000001
ADRES                             0000009B
ADRESH                            0000009C
ADRESL                            0000009B
ANSA0                             00000000
ANSA1                             00000001
ANSA2                             00000002
ANSA4                             00000004
ANSELA                            0000018C
APFCON                            0000011D
APFCON0                           0000011D
A_0                               00000030
A_1                               00000031
A_2                               00000032
A_3                               00000033
A_4                               00000034
A_5                               00000035
A_6                               00000036
A_7                               00000037
A_8                               00000038
A_9                               00000039
A_ACK                             00000006
A_ACUT                            00000060
A_AL                              00000061
A_AMP                             00000026
A_AROB                            00000040
A_AU                              00000041
A_BEL                             00000007
A_BKSP                            00000008
A_BL                              00000062
A_BSLA                            0000005C
A_BU                              00000042
A_CAN                             00000018
A_CIRC                            0000005E
A_CL                              00000063
A_COL                             0000003A
MPASM 5.71  /HOME/JACQUES/GITHUB/PS2_RS232/P   4-10-2017  20:20:39         PAGE 25


SYMBOL TABLE
  LABEL                             VALUE 

A_COMM                            0000002C
A_CR                              0000000D
A_CU                              00000043
A_DASH                            0000002D
A_DC1                             00000011
A_DC2                             00000012
A_DC3                             00000013
A_DC4                             00000014
A_DEL                             0000007F
A_DL                              00000064
A_DLE                             00000010
A_DOLLR                           00000024
A_DOT                             0000002E
A_DQUOT                           00000022
A_DU                              00000044
A_EL                              00000065
A_EM                              00000019
A_ENQ                             00000005
A_EOT                             00000004
A_EQUAL                           0000003D
A_ESC                             0000001B
A_ETB                             00000017
A_ETX                             00000003
A_EU                              00000045
A_EXCLA                           00000021
A_FF                              0000000C
A_FL                              00000066
A_FS                              0000001C
A_FU                              00000046
A_GL                              00000067
A_GS                              0000001D
A_GT                              0000003E
A_GU                              00000047
A_HL                              00000068
A_HU                              00000048
A_IL                              00000069
A_IU                              00000049
A_JL                              0000006A
A_JU                              0000004A
A_KL                              0000006B
A_KU                              0000004B
A_LBRC                            0000007B
A_LBRK                            0000005B
A_LF                              0000000A
A_LL                              0000006C
A_LPAR                            00000028
A_LT                              0000003C
A_LU                              0000004C
A_ML                              0000006D
A_MU                              0000004D
A_NAK                             00000015
A_NL                              0000006E
A_NU                              0000004E
MPASM 5.71  /HOME/JACQUES/GITHUB/PS2_RS232/P   4-10-2017  20:20:39         PAGE 26


SYMBOL TABLE
  LABEL                             VALUE 

A_NUL                             00000000
A_OL                              0000006F
A_OU                              0000004F
A_PIPE                            0000007C
A_PL                              00000070
A_PLUS                            0000002B
A_PRCNT                           00000025
A_PU                              00000050
A_QL                              00000071
A_QU                              00000051
A_QUOT                            00000027
A_QUST                            0000003F
A_RBRC                            0000007D
A_RBRK                            0000005D
A_RL                              00000072
A_RPAR                            00000029
A_RS                              0000001E
A_RU                              00000052
A_SCOL                            0000003B
A_SHARP                           00000023
A_SI                              0000000F
A_SL                              00000073
A_SLASH                           0000002F
A_SO                              0000000E
A_SOH                             00000001
A_SPACE                           00000020
A_STAR                            0000002A
A_STX                             00000002
A_SU                              00000053
A_SUB                             0000001A
A_SYN                             00000016
A_TAB                             00000009
A_TILD                            0000007E
A_TL                              00000074
A_TU                              00000054
A_UL                              00000075
A_UNDR                            0000005F
A_US                              0000001F
A_UU                              00000055
A_VL                              00000076
A_VT                              0000000B
A_VU                              00000056
A_WL                              00000077
A_WU                              00000057
A_XL                              00000078
A_XU                              00000058
A_YL                              00000079
A_YU                              00000059
A_ZL                              0000007A
A_ZU                              0000005A
BAT_OK                            000000AA
BAUD                              00002580
BAUDCON                           0000019F
MPASM 5.71  /HOME/JACQUES/GITHUB/PS2_RS232/P   4-10-2017  20:20:39         PAGE 27


SYMBOL TABLE
  LABEL                             VALUE 

BORCON                            00000116
BORFS                             00000006
BORRDY                            00000000
BRG16                             00000003
BRGH                              00000002
BSR                               00000008
BSR0                              00000000
BSR1                              00000001
BSR2                              00000002
BSR3                              00000003
BSR4                              00000004
BSR_SHAD                          00000FE6
C                                 00000000
C1HYS                             00000001
C1IE                              00000005
C1IF                              00000005
C1INTN                            00000006
C1INTP                            00000007
C1NCH0                            00000000
C1NCH1                            00000001
C1NCH2                            00000002
C1OE                              00000005
C1ON                              00000007
C1OUT                             00000006
C1PCH0                            00000004
C1PCH1                            00000005
C1POL                             00000004
C1SP                              00000002
C1SYNC                            00000000
CDAFVR0                           00000002
CDAFVR1                           00000003
CFGS                              00000006
CHS0                              00000002
CHS1                              00000003
CHS2                              00000004
CHS3                              00000005
CHS4                              00000006
CLK                               00000002
CM1CON0                           00000111
CM1CON1                           00000112
CMOUT                             00000115
CREN                              00000004
CS0                               00000000
CS1                               00000001
CSRC                              00000007
CWG1CON0                          00000693
CWG1CON1                          00000694
CWG1CON2                          00000695
CWG1DBF                           00000692
CWG1DBF0                          00000000
CWG1DBF1                          00000001
CWG1DBF2                          00000002
CWG1DBF3                          00000003
MPASM 5.71  /HOME/JACQUES/GITHUB/PS2_RS232/P   4-10-2017  20:20:39         PAGE 28


SYMBOL TABLE
  LABEL                             VALUE 

CWG1DBF4                          00000004
CWG1DBF5                          00000005
CWG1DBR                           00000691
CWG1DBR0                          00000000
CWG1DBR1                          00000001
CWG1DBR2                          00000002
CWG1DBR3                          00000003
CWG1DBR4                          00000004
CWG1DBR5                          00000005
CWGASEL                           00000006
CWGBSEL                           00000005
C_SHAD                            00000000
DACCON0                           00000118
DACCON1                           00000119
DACEN                             00000007
DACLPS                            00000006
DACOE                             00000005
DACPSS0                           00000002
DACPSS1                           00000003
DACR0                             00000000
DACR1                             00000001
DACR2                             00000002
DACR3                             00000003
DACR4                             00000004
DAT                               00000001
DC                                00000001
DCIE                              00000001
DCIF                              00000001
DC_SHAD                           00000001
EN                                00000007
F                                 00000001
FCY                               000F4240
FERR                              00000002
FOSC                              003D0900
FREE                              00000004
FSR0                              00000004
FSR0H                             00000005
FSR0H_SHAD                        00000FE9
FSR0L                             00000004
FSR0L_SHAD                        00000FE8
FSR0_SHAD                         00000FE8
FSR1                              00000006
FSR1H                             00000007
FSR1H_SHAD                        00000FEB
FSR1L                             00000006
FSR1L_SHAD                        00000FEA
FSR1_SHAD                         00000FEA
FVRCON                            00000117
FVREN                             00000007
FVRRDY                            00000006
F_ACK                             00000006
F_ALT                             00000005
F_BATOK                           00000007
MPASM 5.71  /HOME/JACQUES/GITHUB/PS2_RS232/P   4-10-2017  20:20:39         PAGE 29


SYMBOL TABLE
  LABEL                             VALUE 

F_CAPS                            00000002
F_CTRL                            00000004
F_NUM                             00000001
F_REL                             00000002
F_SCRLL                           00000000
F_SHIFT                           00000003
F_XT                              00000001
G1ARSEN                           00000006
G1ASDLA0                          00000004
G1ASDLA1                          00000005
G1ASDLB0                          00000006
G1ASDLB1                          00000007
G1ASDSC1                          00000002
G1ASDSFLT                         00000001
G1ASE                             00000007
G1CS0                             00000000
G1EN                              00000007
G1IS0                             00000000
G1IS1                             00000001
G1IS2                             00000002
G1OEA                             00000005
G1OEB                             00000006
G1POLA                            00000003
G1POLB                            00000004
GIE                               00000007
GO                                00000001
GO_NOT_DONE                       00000001
HARD_RESET                        
HEAD_PTRH                         FSR0H
HEAD_PTRL                         FSR0L
HFIOFL                            00000003
HFIOFR                            00000004
HFIOFS                            00000000
INDF0                             00000000
INDF1                             00000001
INLVLA                            0000038C
INLVLA0                           00000000
INLVLA1                           00000001
INLVLA2                           00000002
INLVLA3                           00000003
INLVLA4                           00000004
INLVLA5                           00000005
INTCON                            0000000B
INTE                              00000004
INTEDG                            00000006
INTF                              00000001
IOCAF                             00000393
IOCAF0                            00000000
IOCAF1                            00000001
IOCAF2                            00000002
IOCAF3                            00000003
IOCAF4                            00000004
IOCAF5                            00000005
MPASM 5.71  /HOME/JACQUES/GITHUB/PS2_RS232/P   4-10-2017  20:20:39         PAGE 30


SYMBOL TABLE
  LABEL                             VALUE 

IOCAN                             00000392
IOCAN0                            00000000
IOCAN1                            00000001
IOCAN2                            00000002
IOCAN3                            00000003
IOCAN4                            00000004
IOCAN5                            00000005
IOCAP                             00000391
IOCAP0                            00000000
IOCAP1                            00000001
IOCAP2                            00000002
IOCAP3                            00000003
IOCAP4                            00000004
IOCAP5                            00000005
IOCIE                             00000003
IOCIF                             00000000
IRCF0                             00000003
IRCF1                             00000004
IRCF2                             00000005
IRCF3                             00000006
KBD_ACK                           000000FA
KBD_LED                           000000ED
KBD_RESEND                        000000FE
KBD_RESET                         000000FF
KEY_REL                           000000F0
LATA                              0000010C
LATA0                             00000000
LATA1                             00000001
LATA2                             00000002
LATA4                             00000004
LATA5                             00000005
LDA                               00000007
LDS0                              00000000
LDS1                              00000001
LDT                               00000006
LFIOFR                            00000001
LWLO                              00000005
MC1OUT                            00000000
MFIOFR                            00000002
MODE0                             00000002
MODE1                             00000003
MPWM1EN                           00000000
MPWM1LD                           00000000
MPWM1OUT                          00000000
MPWM2EN                           00000001
MPWM2LD                           00000001
MPWM2OUT                          00000001
MPWM3EN                           00000002
MPWM3LD                           00000002
MPWM3OUT                          00000002
NOT_BOR                           00000000
NOT_DONE                          00000001
NOT_PD                            00000003
MPASM 5.71  /HOME/JACQUES/GITHUB/PS2_RS232/P   4-10-2017  20:20:39         PAGE 31


SYMBOL TABLE
  LABEL                             VALUE 

NOT_POR                           00000001
NOT_RI                            00000002
NOT_RMCLR                         00000003
NOT_RWDT                          00000004
NOT_T1SYNC                        00000002
NOT_TO                            00000004
NOT_WPUEN                         00000007
NRST                              00000005
ODA0                              00000000
ODA1                              00000001
ODA2                              00000002
ODA4                              00000004
ODA5                              00000005
ODCONA                            0000028C
OE                                00000006
OERR                              00000001
OFIE                              00000003
OFIF                              00000003
OFM0                              00000005
OFM1                              00000006
OFO                               00000004
OFS0                              00000000
OFS1                              00000001
OPTION_REG                        00000095
OSCCON                            00000099
OSCSTAT                           0000009A
OSCTUNE                           00000098
OSTS                              00000005
OUT                               00000005
P1SEL                             00000000
P2SEL                             00000001
PCL                               00000002
PCLATH                            0000000A
PCLATH_SHAD                       00000FE7
PCON                              00000096
PEIE                              00000006
PHIE                              00000002
PHIF                              00000002
PIE1                              00000091
PIE2                              00000092
PIE3                              00000093
PIR1                              00000011
PIR2                              00000012
PIR3                              00000013
PLLR                              00000006
PMADR                             00000191
PMADRH                            00000192
PMADRL                            00000191
PMCON1                            00000195
PMCON2                            00000196
PMDAT                             00000193
PMDATH                            00000194
PMDATL                            00000193
MPASM 5.71  /HOME/JACQUES/GITHUB/PS2_RS232/P   4-10-2017  20:20:39         PAGE 32


SYMBOL TABLE
  LABEL                             VALUE 

POL                               00000004
PORTA                             0000000C
PR2                               0000001B
PRIE                              00000000
PRIF                              00000000
PS0_OPTION_REG                    00000000
PS0_PWM1CLKCON                    00000004
PS0_PWM2CLKCON                    00000004
PS0_PWM3CLKCON                    00000004
PS1_OPTION_REG                    00000001
PS1_PWM1CLKCON                    00000005
PS1_PWM2CLKCON                    00000005
PS1_PWM3CLKCON                    00000005
PS2_OPTION_REG                    00000002
PS2_PWM1CLKCON                    00000006
PS2_PWM2CLKCON                    00000006
PS2_PWM3CLKCON                    00000006
PSA                               00000003
PWM1CLKCON                        00000D9E
PWM1CON                           00000D9B
PWM1CS0                           00000000
PWM1CS1                           00000001
PWM1DC                            00000D93
PWM1DCH                           00000D94
PWM1DCH0                          00000000
PWM1DCH1                          00000001
PWM1DCH2                          00000002
PWM1DCH3                          00000003
PWM1DCH4                          00000004
PWM1DCH5                          00000005
PWM1DCH6                          00000006
PWM1DCH7                          00000007
PWM1DCIE                          00000001
PWM1DCIF                          00000001
PWM1DCL                           00000D93
PWM1DCL0                          00000000
PWM1DCL1                          00000001
PWM1DCL2                          00000002
PWM1DCL3                          00000003
PWM1DCL4                          00000004
PWM1DCL5                          00000005
PWM1DCL6                          00000006
PWM1DCL7                          00000007
PWM1EN                            00000007
PWM1EN_A                          00000000
PWM1IE                            00000004
PWM1IF                            00000004
PWM1INTCON                        00000D9C
PWM1INTE                          00000D9C
PWM1INTF                          00000D9D
PWM1INTFLG                        00000D9D
PWM1LD                            00000007
PWM1LDA_A                         00000000
MPASM 5.71  /HOME/JACQUES/GITHUB/PS2_RS232/P   4-10-2017  20:20:39         PAGE 33


SYMBOL TABLE
  LABEL                             VALUE 

PWM1LDCON                         00000D9F
PWM1LDM                           00000006
PWM1LDS0                          00000000
PWM1LDS1                          00000001
PWM1MODE0                         00000002
PWM1MODE1                         00000003
PWM1OE                            00000006
PWM1OF                            00000D97
PWM1OFCON                         00000DA0
PWM1OFH                           00000D98
PWM1OFH0                          00000000
PWM1OFH1                          00000001
PWM1OFH2                          00000002
PWM1OFH3                          00000003
PWM1OFH4                          00000004
PWM1OFH5                          00000005
PWM1OFH6                          00000006
PWM1OFH7                          00000007
PWM1OFIE                          00000003
PWM1OFIF                          00000003
PWM1OFL                           00000D97
PWM1OFL0                          00000000
PWM1OFL1                          00000001
PWM1OFL2                          00000002
PWM1OFL3                          00000003
PWM1OFL4                          00000004
PWM1OFL5                          00000005
PWM1OFL6                          00000006
PWM1OFL7                          00000007
PWM1OFM0                          00000005
PWM1OFM1                          00000006
PWM1OFMC                          00000004
PWM1OFS0                          00000000
PWM1OFS1                          00000001
PWM1OUT                           00000005
PWM1OUT_A                         00000000
PWM1PH                            00000D91
PWM1PHH                           00000D92
PWM1PHH0                          00000000
PWM1PHH1                          00000001
PWM1PHH2                          00000002
PWM1PHH3                          00000003
PWM1PHH4                          00000004
PWM1PHH5                          00000005
PWM1PHH6                          00000006
PWM1PHH7                          00000007
PWM1PHIE                          00000002
PWM1PHIF                          00000002
PWM1PHL                           00000D91
PWM1PHL0                          00000000
PWM1PHL1                          00000001
PWM1PHL2                          00000002
PWM1PHL3                          00000003
MPASM 5.71  /HOME/JACQUES/GITHUB/PS2_RS232/P   4-10-2017  20:20:39         PAGE 34


SYMBOL TABLE
  LABEL                             VALUE 

PWM1PHL4                          00000004
PWM1PHL5                          00000005
PWM1PHL6                          00000006
PWM1PHL7                          00000007
PWM1POL                           00000004
PWM1PR                            00000D95
PWM1PRH                           00000D96
PWM1PRH0                          00000000
PWM1PRH1                          00000001
PWM1PRH2                          00000002
PWM1PRH3                          00000003
PWM1PRH4                          00000004
PWM1PRH5                          00000005
PWM1PRH6                          00000006
PWM1PRH7                          00000007
PWM1PRIE                          00000000
PWM1PRIF                          00000000
PWM1PRL                           00000D95
PWM1PRL0                          00000000
PWM1PRL1                          00000001
PWM1PRL2                          00000002
PWM1PRL3                          00000003
PWM1PRL4                          00000004
PWM1PRL5                          00000005
PWM1PRL6                          00000006
PWM1PRL7                          00000007
PWM1PS0                           00000004
PWM1PS1                           00000005
PWM1PS2                           00000006
PWM1TMR                           00000D99
PWM1TMRH                          00000D9A
PWM1TMRH0                         00000000
PWM1TMRH1                         00000001
PWM1TMRH2                         00000002
PWM1TMRH3                         00000003
PWM1TMRH4                         00000004
PWM1TMRH5                         00000005
PWM1TMRH6                         00000006
PWM1TMRH7                         00000007
PWM1TMRL                          00000D99
PWM1TMRL0                         00000000
PWM1TMRL1                         00000001
PWM1TMRL2                         00000002
PWM1TMRL3                         00000003
PWM1TMRL4                         00000004
PWM1TMRL5                         00000005
PWM1TMRL6                         00000006
PWM1TMRL7                         00000007
PWM2CLKCON                        00000DAE
PWM2CON                           00000DAB
PWM2CS0                           00000000
PWM2CS1                           00000001
PWM2DC                            00000DA3
MPASM 5.71  /HOME/JACQUES/GITHUB/PS2_RS232/P   4-10-2017  20:20:39         PAGE 35


SYMBOL TABLE
  LABEL                             VALUE 

PWM2DCH                           00000DA4
PWM2DCH0                          00000000
PWM2DCH1                          00000001
PWM2DCH2                          00000002
PWM2DCH3                          00000003
PWM2DCH4                          00000004
PWM2DCH5                          00000005
PWM2DCH6                          00000006
PWM2DCH7                          00000007
PWM2DCIE                          00000001
PWM2DCIF                          00000001
PWM2DCL                           00000DA3
PWM2DCL0                          00000000
PWM2DCL1                          00000001
PWM2DCL2                          00000002
PWM2DCL3                          00000003
PWM2DCL4                          00000004
PWM2DCL5                          00000005
PWM2DCL6                          00000006
PWM2DCL7                          00000007
PWM2EN                            00000007
PWM2EN_A                          00000001
PWM2IE                            00000005
PWM2IF                            00000005
PWM2INTCON                        00000DAC
PWM2INTE                          00000DAC
PWM2INTF                          00000DAD
PWM2INTFLG                        00000DAD
PWM2LD                            00000007
PWM2LDA_A                         00000001
PWM2LDCON                         00000DAF
PWM2LDM                           00000006
PWM2LDS0                          00000000
PWM2LDS1                          00000001
PWM2MODE0                         00000002
PWM2MODE1                         00000003
PWM2OE                            00000006
PWM2OF                            00000DA7
PWM2OFCON                         00000DB0
PWM2OFH                           00000DA8
PWM2OFH0                          00000000
PWM2OFH1                          00000001
PWM2OFH2                          00000002
PWM2OFH3                          00000003
PWM2OFH4                          00000004
PWM2OFH5                          00000005
PWM2OFH6                          00000006
PWM2OFH7                          00000007
PWM2OFIE                          00000003
PWM2OFIF                          00000003
PWM2OFL                           00000DA7
PWM2OFL0                          00000000
PWM2OFL1                          00000001
MPASM 5.71  /HOME/JACQUES/GITHUB/PS2_RS232/P   4-10-2017  20:20:39         PAGE 36


SYMBOL TABLE
  LABEL                             VALUE 

PWM2OFL2                          00000002
PWM2OFL3                          00000003
PWM2OFL4                          00000004
PWM2OFL5                          00000005
PWM2OFL6                          00000006
PWM2OFL7                          00000007
PWM2OFM0                          00000005
PWM2OFM1                          00000006
PWM2OFMC                          00000004
PWM2OFS0                          00000000
PWM2OFS1                          00000001
PWM2OUT                           00000005
PWM2OUT_A                         00000001
PWM2PH                            00000DA1
PWM2PHH                           00000DA2
PWM2PHH0                          00000000
PWM2PHH1                          00000001
PWM2PHH2                          00000002
PWM2PHH3                          00000003
PWM2PHH4                          00000004
PWM2PHH5                          00000005
PWM2PHH6                          00000006
PWM2PHH7                          00000007
PWM2PHIE                          00000002
PWM2PHIF                          00000002
PWM2PHL                           00000DA1
PWM2PHL0                          00000000
PWM2PHL1                          00000001
PWM2PHL2                          00000002
PWM2PHL3                          00000003
PWM2PHL4                          00000004
PWM2PHL5                          00000005
PWM2PHL6                          00000006
PWM2PHL7                          00000007
PWM2POL                           00000004
PWM2PR                            00000DA5
PWM2PRH                           00000DA6
PWM2PRH0                          00000000
PWM2PRH1                          00000001
PWM2PRH2                          00000002
PWM2PRH3                          00000003
PWM2PRH4                          00000004
PWM2PRH5                          00000005
PWM2PRH6                          00000006
PWM2PRH7                          00000007
PWM2PRIE                          00000000
PWM2PRIF                          00000000
PWM2PRL                           00000DA5
PWM2PRL0                          00000000
PWM2PRL1                          00000001
PWM2PRL2                          00000002
PWM2PRL3                          00000003
PWM2PRL4                          00000004
MPASM 5.71  /HOME/JACQUES/GITHUB/PS2_RS232/P   4-10-2017  20:20:39         PAGE 37


SYMBOL TABLE
  LABEL                             VALUE 

PWM2PRL5                          00000005
PWM2PRL6                          00000006
PWM2PRL7                          00000007
PWM2PS0                           00000004
PWM2PS1                           00000005
PWM2PS2                           00000006
PWM2TMR                           00000DA9
PWM2TMRH                          00000DAA
PWM2TMRH0                         00000000
PWM2TMRH1                         00000001
PWM2TMRH2                         00000002
PWM2TMRH3                         00000003
PWM2TMRH4                         00000004
PWM2TMRH5                         00000005
PWM2TMRH6                         00000006
PWM2TMRH7                         00000007
PWM2TMRL                          00000DA9
PWM2TMRL0                         00000000
PWM2TMRL1                         00000001
PWM2TMRL2                         00000002
PWM2TMRL3                         00000003
PWM2TMRL4                         00000004
PWM2TMRL5                         00000005
PWM2TMRL6                         00000006
PWM2TMRL7                         00000007
PWM3CLKCON                        00000DBE
PWM3CON                           00000DBB
PWM3CS0                           00000000
PWM3CS1                           00000001
PWM3DC                            00000DB3
PWM3DCH                           00000DB4
PWM3DCH0                          00000000
PWM3DCH1                          00000001
PWM3DCH2                          00000002
PWM3DCH3                          00000003
PWM3DCH4                          00000004
PWM3DCH5                          00000005
PWM3DCH6                          00000006
PWM3DCH7                          00000007
PWM3DCIE                          00000001
PWM3DCIF                          00000001
PWM3DCL                           00000DB3
PWM3DCL0                          00000000
PWM3DCL1                          00000001
PWM3DCL2                          00000002
PWM3DCL3                          00000003
PWM3DCL4                          00000004
PWM3DCL5                          00000005
PWM3DCL6                          00000006
PWM3DCL7                          00000007
PWM3EN                            00000007
PWM3EN_A                          00000002
PWM3IE                            00000006
MPASM 5.71  /HOME/JACQUES/GITHUB/PS2_RS232/P   4-10-2017  20:20:39         PAGE 38


SYMBOL TABLE
  LABEL                             VALUE 

PWM3IF                            00000006
PWM3INTCON                        00000DBC
PWM3INTE                          00000DBC
PWM3INTF                          00000DBD
PWM3INTFLG                        00000DBD
PWM3LD                            00000007
PWM3LDA_A                         00000002
PWM3LDCON                         00000DBF
PWM3LDM                           00000006
PWM3LDS0                          00000000
PWM3LDS1                          00000001
PWM3MODE0                         00000002
PWM3MODE1                         00000003
PWM3OE                            00000006
PWM3OF                            00000DB7
PWM3OFCON                         00000DC0
PWM3OFH                           00000DB8
PWM3OFH0                          00000000
PWM3OFH1                          00000001
PWM3OFH2                          00000002
PWM3OFH3                          00000003
PWM3OFH4                          00000004
PWM3OFH5                          00000005
PWM3OFH6                          00000006
PWM3OFH7                          00000007
PWM3OFIE                          00000003
PWM3OFIF                          00000003
PWM3OFL                           00000DB7
PWM3OFL0                          00000000
PWM3OFL1                          00000001
PWM3OFL2                          00000002
PWM3OFL3                          00000003
PWM3OFL4                          00000004
PWM3OFL5                          00000005
PWM3OFL6                          00000006
PWM3OFL7                          00000007
PWM3OFM0                          00000005
PWM3OFM1                          00000006
PWM3OFMC                          00000004
PWM3OFS0                          00000000
PWM3OFS1                          00000001
PWM3OUT                           00000005
PWM3OUT_A                         00000002
PWM3PH                            00000DB1
PWM3PHH                           00000DB2
PWM3PHH0                          00000000
PWM3PHH1                          00000001
PWM3PHH2                          00000002
PWM3PHH3                          00000003
PWM3PHH4                          00000004
PWM3PHH5                          00000005
PWM3PHH6                          00000006
PWM3PHH7                          00000007
MPASM 5.71  /HOME/JACQUES/GITHUB/PS2_RS232/P   4-10-2017  20:20:39         PAGE 39


SYMBOL TABLE
  LABEL                             VALUE 

PWM3PHIE                          00000002
PWM3PHIF                          00000002
PWM3PHL                           00000DB1
PWM3PHL0                          00000000
PWM3PHL1                          00000001
PWM3PHL2                          00000002
PWM3PHL3                          00000003
PWM3PHL4                          00000004
PWM3PHL5                          00000005
PWM3PHL6                          00000006
PWM3PHL7                          00000007
PWM3POL                           00000004
PWM3PR                            00000DB5
PWM3PRH                           00000DB6
PWM3PRH0                          00000000
PWM3PRH1                          00000001
PWM3PRH2                          00000002
PWM3PRH3                          00000003
PWM3PRH4                          00000004
PWM3PRH5                          00000005
PWM3PRH6                          00000006
PWM3PRH7                          00000007
PWM3PRIE                          00000000
PWM3PRIF                          00000000
PWM3PRL                           00000DB5
PWM3PRL0                          00000000
PWM3PRL1                          00000001
PWM3PRL2                          00000002
PWM3PRL3                          00000003
PWM3PRL4                          00000004
PWM3PRL5                          00000005
PWM3PRL6                          00000006
PWM3PRL7                          00000007
PWM3PS0                           00000004
PWM3PS1                           00000005
PWM3PS2                           00000006
PWM3TMR                           00000DB9
PWM3TMRH                          00000DBA
PWM3TMRH0                         00000000
PWM3TMRH1                         00000001
PWM3TMRH2                         00000002
PWM3TMRH3                         00000003
PWM3TMRH4                         00000004
PWM3TMRH5                         00000005
PWM3TMRH6                         00000006
PWM3TMRH7                         00000007
PWM3TMRL                          00000DB9
PWM3TMRL0                         00000000
PWM3TMRL1                         00000001
PWM3TMRL2                         00000002
PWM3TMRL3                         00000003
PWM3TMRL4                         00000004
PWM3TMRL5                         00000005
MPASM 5.71  /HOME/JACQUES/GITHUB/PS2_RS232/P   4-10-2017  20:20:39         PAGE 40


SYMBOL TABLE
  LABEL                             VALUE 

PWM3TMRL6                         00000006
PWM3TMRL7                         00000007
PWMEN                             00000D8E
PWMLD                             00000D8F
PWMOUT                            00000D90
QUEUE_HEAD                        INDF0
QUEUE_TAIL                        INDF1
RA0                               00000000
RA1                               00000001
RA2                               00000002
RA3                               00000003
RA4                               00000004
RA5                               00000005
RCIDL                             00000006
RCIE                              00000005
RCIF                              00000005
RCREG                             00000199
RCSTA                             0000019D
RD                                00000000
RX9                               00000006
RX9D                              00000000
RXDTSEL                           00000007
SBOREN                            00000007
SCKP                              00000004
SCS0                              00000000
SCS1                              00000001
SC_APPS                           0000002F
SC_BKSP                           00000066
SC_CAPS                           00000058
SC_DEL                            00000071
SC_DOWN                           00000072
SC_END                            00000069
SC_ENTER                          0000005A
SC_ESC                            00000076
SC_F1                             00000005
SC_F10                            00000009
SC_F11                            00000078
SC_F12                            00000007
SC_F2                             00000006
SC_F3                             00000004
SC_F4                             0000000C
SC_F5                             00000003
SC_F6                             0000000B
SC_F7                             00000083
SC_F8                             0000000A
SC_F9                             00000001
SC_HOME                           0000006C
SC_INSERT                         00000070
SC_KP0                            00000070
SC_KP1                            00000069
SC_KP2                            00000072
SC_KP3                            0000007A
SC_KP4                            0000006B
MPASM 5.71  /HOME/JACQUES/GITHUB/PS2_RS232/P   4-10-2017  20:20:39         PAGE 41


SYMBOL TABLE
  LABEL                             VALUE 

SC_KP5                            00000073
SC_KP6                            00000074
SC_KP7                            0000006C
SC_KP8                            00000075
SC_KP9                            0000007D
SC_KPDIV                          0000004A
SC_KPDOT                          00000071
SC_KPENTER                        0000005A
SC_KPMINUS                        0000007B
SC_KPMUL                          0000007C
SC_KPPLUS                         00000079
SC_LALT                           00000011
SC_LCTRL                          00000014
SC_LEFT                           0000006B
SC_LGUI                           0000001F
SC_LSHIFT                         00000012
SC_NUM                            00000077
SC_PAUSE                          0xe1,0x14,0x77,0xe1,0xf0,0x14,0xf0,0x77
SC_PGDN                           0000007A
SC_PGUP                           0000007D
SC_PRN                            0xe0,0x12,0xe0,0x7c
SC_PRN_REL                        0xe0,0xf0,0x7c,0xe0,0xf0,0x12
SC_RALT                           00000011
SC_RCTRL                          00000014
SC_RGUI                           00000027
SC_RIGHT                          00000074
SC_RSHIFT                         00000059
SC_SCROLL                         0000007E
SC_TAB                            0000000D
SC_UP                             00000075
SENDB                             00000003
SLRA0                             00000000
SLRA1                             00000001
SLRA2                             00000002
SLRA4                             00000004
SLRA5                             00000005
SLRCONA                           0000030C
SPBRG                             0000019B
SPBRGH                            0000019C
SPBRGL                            0000019B
SPEN                              00000007
SPLLEN                            00000007
SREN                              00000005
STATUS                            00000003
STATUS_SHAD                       00000FE4
STKOVF                            00000007
STKPTR                            00000FED
STKUNF                            00000006
SWDTEN                            00000000
SYNC                              00000004
T0CS                              00000005
T0IE                              00000005
T0IF                              00000002
MPASM 5.71  /HOME/JACQUES/GITHUB/PS2_RS232/P   4-10-2017  20:20:39         PAGE 42


SYMBOL TABLE
  LABEL                             VALUE 

T0SE                              00000004
T1CKPS0                           00000004
T1CKPS1                           00000005
T1CON                             00000018
T1GCON                            00000019
T1GGO                             00000003
T1GGO_NOT_DONE                    00000003
T1GPOL                            00000006
T1GSEL                            00000003
T1GSPM                            00000004
T1GSS0                            00000000
T1GSS1                            00000001
T1GTM                             00000005
T1GVAL                            00000002
T2CKPS0                           00000000
T2CKPS1                           00000001
T2CON                             0000001C
T2OUTPS0                          00000003
T2OUTPS1                          00000004
T2OUTPS2                          00000005
T2OUTPS3                          00000006
TAIL_PTRH                         FSR1H
TAIL_PTRL                         FSR1L
TMR0                              00000015
TMR0CS                            00000005
TMR0IE                            00000005
TMR0IF                            00000002
TMR0SE                            00000004
TMR1                              00000016
TMR1CS0                           00000006
TMR1CS1                           00000007
TMR1GE                            00000007
TMR1GIE                           00000007
TMR1GIF                           00000007
TMR1H                             00000017
TMR1IE                            00000000
TMR1IF                            00000000
TMR1L                             00000016
TMR1ON                            00000000
TMR2                              0000001A
TMR2IE                            00000001
TMR2IF                            00000001
TMR2ON                            00000002
TOS                               00000FEE
TOSH                              00000FEF
TOSL                              00000FEE
TRIGSEL0                          00000004
TRIGSEL1                          00000005
TRIGSEL2                          00000006
TRIGSEL3                          00000007
TRISA                             0000008C
TRISA0                            00000000
TRISA1                            00000001
MPASM 5.71  /HOME/JACQUES/GITHUB/PS2_RS232/P   4-10-2017  20:20:39         PAGE 43


SYMBOL TABLE
  LABEL                             VALUE 

TRISA2                            00000002
TRISA3                            00000003
TRISA4                            00000004
TRISA5                            00000005
TRMT                              00000001
TSEN                              00000005
TSRNG                             00000004
TUN0                              00000000
TUN1                              00000001
TUN2                              00000002
TUN3                              00000003
TUN4                              00000004
TUN5                              00000005
TX                                00000004
TX9                               00000006
TX9D                              00000000
TXCKSEL                           00000002
TXEN                              00000005
TXIE                              00000004
TXIF                              00000004
TXREG                             0000019A
TXSTA                             0000019E
VK_APPS                           00000097
VK_BACK                           00000008
VK_CAPS                           000000A8
VK_CDOWN                          000000B2
VK_CEND                           000000B6
VK_CHOME                          000000B5
VK_CLEFT                          000000B3
VK_CLOCK                          0000009B
VK_CPGDN                          000000B8
VK_CPGUP                          000000B7
VK_CRIGHT                         000000B4
VK_CUP                            000000B1
VK_DELETE                         00000096
VK_DOWN                           0000008E
VK_END                            00000092
VK_ENTER                          0000000D
VK_ESC                            0000001B
VK_F1                             00000080
VK_F10                            0000008A
VK_F11                            0000008B
VK_F12                            0000008C
VK_F2                             00000081
VK_F3                             00000082
VK_F4                             00000083
VK_F5                             00000084
VK_F6                             00000085
VK_F7                             00000086
VK_F8                             00000087
VK_F9                             00000088
VK_HOME                           00000091
VK_INSERT                         00000095
MPASM 5.71  /HOME/JACQUES/GITHUB/PS2_RS232/P   4-10-2017  20:20:39         PAGE 44


SYMBOL TABLE
  LABEL                             VALUE 

VK_LALT                           0000009E
VK_LCTRL                          0000009D
VK_LEFT                           0000008F
VK_LGUI                           000000A0
VK_LSHIFT                         0000009C
VK_NLOCK                          0000009A
VK_NUM                            000000A5
VK_PAUSE                          00000099
VK_PGDN                           00000094
VK_PGUP                           00000093
VK_PRN                            00000098
VK_RALT                           000000A3
VK_RCTRL                          000000A1
VK_RGUI                           000000A2
VK_RIGHT                          00000090
VK_RSHIFT                         0000009F
VK_SCROLL                         000000A4
VK_SDOWN                          000000AA
VK_SEND                           000000AE
VK_SHOME                          000000AD
VK_SLEFT                          000000AB
VK_SPACE                          00000020
VK_SPGDN                          000000B0
VK_SPGUP                          000000AF
VK_SRIGHT                         000000AC
VK_SUP                            000000A9
VK_TAB                            00000009
VK_UP                             0000008D
VREGCON                           00000197
VREGPM                            00000001
W                                 00000000
WDTCON                            00000097
WDTPS0                            00000001
WDTPS1                            00000002
WDTPS2                            00000003
WDTPS3                            00000004
WDTPS4                            00000005
WPUA                              0000020C
WPUA0                             00000000
WPUA1                             00000001
WPUA2                             00000002
WPUA3                             00000003
WPUA4                             00000004
WPUA5                             00000005
WR                                00000001
WREG                              00000009
WREG_SHAD                         00000FE5
WREN                              00000002
WRERR                             00000003
WUE                               00000001
XT2_KEY                           000000E1
XT_KEY                            000000E0
Z                                 00000002
MPASM 5.71  /HOME/JACQUES/GITHUB/PS2_RS232/P   4-10-2017  20:20:39         PAGE 45


SYMBOL TABLE
  LABEL                             VALUE 

Z_SHAD                            00000002
_.org_1_0015                      00000015
_.org_1_0023                      00000023
_.org_1_0029                      00000029
_.org_1_002F                      0000002F
_.org_1_0043                      00000043
_.org_1_0050                      00000050
_.org_1_0054                      00000054
_.org_1_0056                      00000056
_.org_1_006C                      0000006C
_.org_1_007B                      0000007B
_.org_1_0081                      00000081
_.org_1_0086                      00000086
_.org_1_008F                      0000008F
_.org_1_0095                      00000095
_.org_1_009C                      0000009C
_.org_1_0155                      00000155
_.org_1_01AA                      000001AA
_.org_1_01B6                      000001B6
_.org_1_01B8                      000001B8
_BOREN_NSLEEP                     00003DFF
_BOREN_OFF                        000039FF
_BOREN_ON                         00003FFF
_BOREN_SBODEN                     00003BFF
_BORV_19                          00003FFF
_BORV_HI                          00003BFF
_BORV_LO                          00003FFF
_CLKOUTEN_OFF                     00003FFF
_CLKOUTEN_ON                      000037FF
_CONFIG1                          00008007
_CONFIG2                          00008008
_CP_OFF                           00003FFF
_CP_ON                            00003F7F
_DEVID1                           00008006
_FOSC_ECH                         00003FFF
_FOSC_ECL                         00003FFD
_FOSC_ECM                         00003FFE
_FOSC_INTOSC                      00003FFC
_IDLOC0                           00008000
_IDLOC1                           00008001
_IDLOC2                           00008002
_IDLOC3                           00008003
_LPBOREN_OFF                      00003FFF
_LPBOREN_ON                       000037FF
_LVP_OFF                          00001FFF
_LVP_ON                           00003FFF
_MCLRE_OFF                        00003FBF
_MCLRE_ON                         00003FFF
_PLLEN_OFF                        00003EFF
_PLLEN_ON                         00003FFF
_PWRTE_OFF                        00003FFF
_PWRTE_ON                         00003FDF
_STVREN_OFF                       00003DFF
MPASM 5.71  /HOME/JACQUES/GITHUB/PS2_RS232/P   4-10-2017  20:20:39         PAGE 46


SYMBOL TABLE
  LABEL                             VALUE 

_STVREN_ON                        00003FFF
_WDTE_NSLEEP                      00003FF7
_WDTE_OFF                         00003FE7
_WDTE_ON                          00003FFF
_WDTE_SWDTEN                      00003FEF
_WRT_ALL                          00003FFC
_WRT_BOOT                         00003FFE
_WRT_HALF                         00003FFD
_WRT_OFF                          00003FFF
__12F1572                         00000001
_altchar                          000000BC
_control                          000000CA
_shifted                          000000AE
alpha                             000000E3
alt_down                          0000015E
altchar_found                     000000C7
altkey                            00000168
bitcntr                           00000072
capskey                           0000016C
case                              
clear_flags                       00000182
cmd                               00000075
code_convert                      00000112
code_done                         00000184
control_found                     000000E0
ctrl_down                         00000158
ctrl_loop                         000000D5
ctrlkey                           00000164
delete                            00000153
found                             0000010C
get_pause                         0000009F
if_shifted                        000000EC
ignore_code                       00000182
in_byte                           00000073
in_queue                          00000020
init                              00000188
isr                               00000004
isr_exit                          0000003F
kbd_send                          00000058
kbd_send_loop                     00000069
kbd_state                         00000076
key_release                       0000017C
letter                            000000F5
main                              000001BA
micro_delay                       0000004F
not_alpha                         000000EA
numkey                            00000172
parity                            00000074
parity_bit                        00000019
parity_check                      0000001E
pkey                              0000017E
qhead                             00000070
qtail                             00000071
MPASM 5.71  /HOME/JACQUES/GITHUB/PS2_RS232/P   4-10-2017  20:20:39         PAGE 47


SYMBOL TABLE
  LABEL                             VALUE 

rst                               00000000
rxflags                           00000077
search                            
set_leds                          0000008B
shift_on                          000000FA
shifted_found                     000000B9
shiftkey                          00000178
signal_reset                      00000097
start_bit                         0000003C
std_codes                         00000000
stop_bit                          0000001C
t0                                00000078
t1                                00000079
table_altchar                     00000000
table_control                     00000000
table_shifted                     00000000
to_hex                            00000047
trans_loop                        000000FF
translate                         000000FD
uart_send                         00000041
wait_code                         000000A1
wait_kbd_clock                    00000052
xkey                              00000180
xt_codes                          00000000

Errors   :     0
Warnings :     0 reported,     0 suppressed
Messages :    32 reported,     0 suppressed

